
DEVICE_EXAMPLE1.elf:     file format elf32-littlearm

Sections:
Idx Name          Size      VMA       LMA       File off  Algn
  0 .text         00004758  00000000  00000000  00008000  2**2
                  CONTENTS, ALLOC, LOAD, READONLY, CODE
  1 .relocate     000000ec  20000000  00004758  00010000  2**2
                  CONTENTS, ALLOC, LOAD, DATA
  2 .bss          00000bcc  200000ec  00004844  000100ec  2**2
                  ALLOC
  3 .stack        00002000  20000cb8  00005410  000100ec  2**0
                  ALLOC
  4 .ARM.attributes 00000028  00000000  00000000  000100ec  2**0
                  CONTENTS, READONLY
  5 .comment      0000005b  00000000  00000000  00010114  2**0
                  CONTENTS, READONLY
  6 .debug_frame  000000e8  00000000  00000000  00010170  2**2
                  CONTENTS, READONLY, DEBUGGING

Disassembly of section .text:

00000000 <_sfixed>:
       0:	20002cb8 	.word	0x20002cb8
       4:	00003d61 	.word	0x00003d61
       8:	00003d5d 	.word	0x00003d5d
       c:	00003d5d 	.word	0x00003d5d
	...
      2c:	00003d5d 	.word	0x00003d5d
	...
      38:	00003d5d 	.word	0x00003d5d
      3c:	00003d5d 	.word	0x00003d5d
      40:	00003d5d 	.word	0x00003d5d
      44:	00003d5d 	.word	0x00003d5d
      48:	00003d5d 	.word	0x00003d5d
      4c:	00003d5d 	.word	0x00003d5d
      50:	00001585 	.word	0x00001585
      54:	00003d5d 	.word	0x00003d5d
      58:	00003d5d 	.word	0x00003d5d
      5c:	000037b1 	.word	0x000037b1
      60:	00003d5d 	.word	0x00003d5d
      64:	00001aa9 	.word	0x00001aa9
      68:	00001ab9 	.word	0x00001ab9
      6c:	00001ac9 	.word	0x00001ac9
      70:	00001ad9 	.word	0x00001ad9
      74:	00001ae9 	.word	0x00001ae9
      78:	00001af9 	.word	0x00001af9
      7c:	00003d5d 	.word	0x00003d5d
      80:	00003d5d 	.word	0x00003d5d
      84:	00003d5d 	.word	0x00003d5d
      88:	000005fd 	.word	0x000005fd
      8c:	0000060d 	.word	0x0000060d
      90:	0000061d 	.word	0x0000061d
      94:	0000062d 	.word	0x0000062d
      98:	0000063d 	.word	0x0000063d
      9c:	000004e1 	.word	0x000004e1
      a0:	00003d5d 	.word	0x00003d5d
      a4:	00003d5d 	.word	0x00003d5d
      a8:	00003d5d 	.word	0x00003d5d
      ac:	00003d5d 	.word	0x00003d5d
      b0:	00000000 	.word	0x00000000

000000b4 <__do_global_dtors_aux>:
      b4:	b510      	push	{r4, lr}
      b6:	4c06      	ldr	r4, [pc, #24]	; (d0 <__do_global_dtors_aux+0x1c>)
      b8:	7823      	ldrb	r3, [r4, #0]
      ba:	2b00      	cmp	r3, #0
      bc:	d107      	bne.n	ce <__do_global_dtors_aux+0x1a>
      be:	4b05      	ldr	r3, [pc, #20]	; (d4 <__do_global_dtors_aux+0x20>)
      c0:	2b00      	cmp	r3, #0
      c2:	d002      	beq.n	ca <__do_global_dtors_aux+0x16>
      c4:	4804      	ldr	r0, [pc, #16]	; (d8 <__do_global_dtors_aux+0x24>)
      c6:	e000      	b.n	ca <__do_global_dtors_aux+0x16>
      c8:	bf00      	nop
      ca:	2301      	movs	r3, #1
      cc:	7023      	strb	r3, [r4, #0]
      ce:	bd10      	pop	{r4, pc}
      d0:	200000ec 	.word	0x200000ec
      d4:	00000000 	.word	0x00000000
      d8:	00004758 	.word	0x00004758

000000dc <frame_dummy>:
      dc:	b508      	push	{r3, lr}
      de:	4b08      	ldr	r3, [pc, #32]	; (100 <frame_dummy+0x24>)
      e0:	2b00      	cmp	r3, #0
      e2:	d003      	beq.n	ec <frame_dummy+0x10>
      e4:	4807      	ldr	r0, [pc, #28]	; (104 <frame_dummy+0x28>)
      e6:	4908      	ldr	r1, [pc, #32]	; (108 <frame_dummy+0x2c>)
      e8:	e000      	b.n	ec <frame_dummy+0x10>
      ea:	bf00      	nop
      ec:	4807      	ldr	r0, [pc, #28]	; (10c <frame_dummy+0x30>)
      ee:	6803      	ldr	r3, [r0, #0]
      f0:	2b00      	cmp	r3, #0
      f2:	d100      	bne.n	f6 <frame_dummy+0x1a>
      f4:	bd08      	pop	{r3, pc}
      f6:	4b06      	ldr	r3, [pc, #24]	; (110 <frame_dummy+0x34>)
      f8:	2b00      	cmp	r3, #0
      fa:	d0fb      	beq.n	f4 <frame_dummy+0x18>
      fc:	4798      	blx	r3
      fe:	e7f9      	b.n	f4 <frame_dummy+0x18>
     100:	00000000 	.word	0x00000000
     104:	00004758 	.word	0x00004758
     108:	200000f0 	.word	0x200000f0
     10c:	00004758 	.word	0x00004758
     110:	00000000 	.word	0x00000000

00000114 <adc_is_syncing>:
     114:	6803      	ldr	r3, [r0, #0]
     116:	7e58      	ldrb	r0, [r3, #25]
     118:	09c0      	lsrs	r0, r0, #7
     11a:	4770      	bx	lr

0000011c <_adc_configure_ain_pin>:
     11c:	b530      	push	{r4, r5, lr}
     11e:	b097      	sub	sp, #92	; 0x5c
     120:	ad02      	add	r5, sp, #8
     122:	1c04      	adds	r4, r0, #0
     124:	490a      	ldr	r1, [pc, #40]	; (150 <_adc_configure_ain_pin+0x34>)
     126:	1c28      	adds	r0, r5, #0
     128:	2250      	movs	r2, #80	; 0x50
     12a:	4b0a      	ldr	r3, [pc, #40]	; (154 <_adc_configure_ain_pin+0x38>)
     12c:	4798      	blx	r3
     12e:	2c13      	cmp	r4, #19
     130:	d80b      	bhi.n	14a <_adc_configure_ain_pin+0x2e>
     132:	2300      	movs	r3, #0
     134:	00a4      	lsls	r4, r4, #2
     136:	a901      	add	r1, sp, #4
     138:	5960      	ldr	r0, [r4, r5]
     13a:	704b      	strb	r3, [r1, #1]
     13c:	70cb      	strb	r3, [r1, #3]
     13e:	708b      	strb	r3, [r1, #2]
     140:	3301      	adds	r3, #1
     142:	700b      	strb	r3, [r1, #0]
     144:	b2c0      	uxtb	r0, r0
     146:	4b04      	ldr	r3, [pc, #16]	; (158 <_adc_configure_ain_pin+0x3c>)
     148:	4798      	blx	r3
     14a:	b017      	add	sp, #92	; 0x5c
     14c:	bd30      	pop	{r4, r5, pc}
     14e:	46c0      	nop			; (mov r8, r8)
     150:	00004690 	.word	0x00004690
     154:	0000466d 	.word	0x0000466d
     158:	000025d5 	.word	0x000025d5

0000015c <adc_get_config_defaults>:
     15c:	22c0      	movs	r2, #192	; 0xc0
     15e:	0092      	lsls	r2, r2, #2
     160:	8042      	strh	r2, [r0, #2]
     162:	2230      	movs	r2, #48	; 0x30
     164:	7102      	strb	r2, [r0, #4]
     166:	3a28      	subs	r2, #40	; 0x28
     168:	7302      	strb	r2, [r0, #12]
     16a:	22c8      	movs	r2, #200	; 0xc8
     16c:	0152      	lsls	r2, r2, #5
     16e:	81c2      	strh	r2, [r0, #14]
     170:	1c02      	adds	r2, r0, #0
     172:	2300      	movs	r3, #0
     174:	322a      	adds	r2, #42	; 0x2a
     176:	7003      	strb	r3, [r0, #0]
     178:	7043      	strb	r3, [r0, #1]
     17a:	7603      	strb	r3, [r0, #24]
     17c:	6203      	str	r3, [r0, #32]
     17e:	61c3      	str	r3, [r0, #28]
     180:	6083      	str	r3, [r0, #8]
     182:	7403      	strb	r3, [r0, #16]
     184:	7443      	strb	r3, [r0, #17]
     186:	7483      	strb	r3, [r0, #18]
     188:	74c3      	strb	r3, [r0, #19]
     18a:	7503      	strb	r3, [r0, #20]
     18c:	7013      	strb	r3, [r2, #0]
     18e:	1d42      	adds	r2, r0, #5
     190:	7543      	strb	r3, [r0, #21]
     192:	7583      	strb	r3, [r0, #22]
     194:	77d3      	strb	r3, [r2, #31]
     196:	84c3      	strh	r3, [r0, #38]	; 0x26
     198:	8503      	strh	r3, [r0, #40]	; 0x28
     19a:	75c3      	strb	r3, [r0, #23]
     19c:	3226      	adds	r2, #38	; 0x26
     19e:	302c      	adds	r0, #44	; 0x2c
     1a0:	7013      	strb	r3, [r2, #0]
     1a2:	7003      	strb	r3, [r0, #0]
     1a4:	4770      	bx	lr
	...

000001a8 <adc_init>:
     1a8:	b5f0      	push	{r4, r5, r6, r7, lr}
     1aa:	2580      	movs	r5, #128	; 0x80
     1ac:	4cb8      	ldr	r4, [pc, #736]	; (490 <adc_init+0x2e8>)
     1ae:	6001      	str	r1, [r0, #0]
     1b0:	6a23      	ldr	r3, [r4, #32]
     1b2:	026d      	lsls	r5, r5, #9
     1b4:	432b      	orrs	r3, r5
     1b6:	6223      	str	r3, [r4, #32]
     1b8:	780c      	ldrb	r4, [r1, #0]
     1ba:	b087      	sub	sp, #28
     1bc:	2305      	movs	r3, #5
     1be:	07e4      	lsls	r4, r4, #31
     1c0:	d500      	bpl.n	1c4 <adc_init+0x1c>
     1c2:	e162      	b.n	48a <adc_init+0x2e2>
     1c4:	7809      	ldrb	r1, [r1, #0]
     1c6:	3317      	adds	r3, #23
     1c8:	0789      	lsls	r1, r1, #30
     1ca:	d500      	bpl.n	1ce <adc_init+0x26>
     1cc:	e15d      	b.n	48a <adc_init+0x2e2>
     1ce:	7853      	ldrb	r3, [r2, #1]
     1d0:	7103      	strb	r3, [r0, #4]
     1d2:	2b00      	cmp	r3, #0
     1d4:	d104      	bne.n	1e0 <adc_init+0x38>
     1d6:	2404      	movs	r4, #4
     1d8:	49ae      	ldr	r1, [pc, #696]	; (494 <adc_init+0x2ec>)
     1da:	6c0b      	ldr	r3, [r1, #64]	; 0x40
     1dc:	4323      	orrs	r3, r4
     1de:	640b      	str	r3, [r1, #64]	; 0x40
     1e0:	49ad      	ldr	r1, [pc, #692]	; (498 <adc_init+0x2f0>)
     1e2:	2300      	movs	r3, #0
     1e4:	6008      	str	r0, [r1, #0]
     1e6:	1c11      	adds	r1, r2, #0
     1e8:	312a      	adds	r1, #42	; 0x2a
     1ea:	8303      	strh	r3, [r0, #24]
     1ec:	6083      	str	r3, [r0, #8]
     1ee:	60c3      	str	r3, [r0, #12]
     1f0:	6103      	str	r3, [r0, #16]
     1f2:	7683      	strb	r3, [r0, #26]
     1f4:	76c3      	strb	r3, [r0, #27]
     1f6:	7703      	strb	r3, [r0, #28]
     1f8:	9101      	str	r1, [sp, #4]
     1fa:	7809      	ldrb	r1, [r1, #0]
     1fc:	4299      	cmp	r1, r3
     1fe:	d103      	bne.n	208 <adc_init+0x60>
     200:	7d11      	ldrb	r1, [r2, #20]
     202:	4299      	cmp	r1, r3
     204:	d100      	bne.n	208 <adc_init+0x60>
     206:	3301      	adds	r3, #1
     208:	1c14      	adds	r4, r2, #0
     20a:	7743      	strb	r3, [r0, #29]
     20c:	7813      	ldrb	r3, [r2, #0]
     20e:	a905      	add	r1, sp, #20
     210:	700b      	strb	r3, [r1, #0]
     212:	9000      	str	r0, [sp, #0]
     214:	6806      	ldr	r6, [r0, #0]
     216:	4ba1      	ldr	r3, [pc, #644]	; (49c <adc_init+0x2f4>)
     218:	201e      	movs	r0, #30
     21a:	4798      	blx	r3
     21c:	4ba0      	ldr	r3, [pc, #640]	; (4a0 <adc_init+0x2f8>)
     21e:	201e      	movs	r0, #30
     220:	4798      	blx	r3
     222:	1c23      	adds	r3, r4, #0
     224:	332c      	adds	r3, #44	; 0x2c
     226:	781b      	ldrb	r3, [r3, #0]
     228:	7b27      	ldrb	r7, [r4, #12]
     22a:	2b00      	cmp	r3, #0
     22c:	d019      	beq.n	262 <adc_init+0xba>
     22e:	1c22      	adds	r2, r4, #0
     230:	322b      	adds	r2, #43	; 0x2b
     232:	7815      	ldrb	r5, [r2, #0]
     234:	197d      	adds	r5, r7, r5
     236:	b2ed      	uxtb	r5, r5
     238:	18eb      	adds	r3, r5, r3
     23a:	b2db      	uxtb	r3, r3
     23c:	9302      	str	r3, [sp, #8]
     23e:	9a02      	ldr	r2, [sp, #8]
     240:	1beb      	subs	r3, r5, r7
     242:	b2db      	uxtb	r3, r3
     244:	4295      	cmp	r5, r2
     246:	d208      	bcs.n	25a <adc_init+0xb2>
     248:	200f      	movs	r0, #15
     24a:	7b22      	ldrb	r2, [r4, #12]
     24c:	4003      	ands	r3, r0
     24e:	1898      	adds	r0, r3, r2
     250:	3501      	adds	r5, #1
     252:	4b94      	ldr	r3, [pc, #592]	; (4a4 <adc_init+0x2fc>)
     254:	4798      	blx	r3
     256:	b2ed      	uxtb	r5, r5
     258:	e7f1      	b.n	23e <adc_init+0x96>
     25a:	89e0      	ldrh	r0, [r4, #14]
     25c:	4b91      	ldr	r3, [pc, #580]	; (4a4 <adc_init+0x2fc>)
     25e:	4798      	blx	r3
     260:	e004      	b.n	26c <adc_init+0xc4>
     262:	1c38      	adds	r0, r7, #0
     264:	4d8f      	ldr	r5, [pc, #572]	; (4a4 <adc_init+0x2fc>)
     266:	47a8      	blx	r5
     268:	89e0      	ldrh	r0, [r4, #14]
     26a:	47a8      	blx	r5
     26c:	7d63      	ldrb	r3, [r4, #21]
     26e:	009b      	lsls	r3, r3, #2
     270:	b2db      	uxtb	r3, r3
     272:	7033      	strb	r3, [r6, #0]
     274:	7da3      	ldrb	r3, [r4, #22]
     276:	7862      	ldrb	r2, [r4, #1]
     278:	01db      	lsls	r3, r3, #7
     27a:	4313      	orrs	r3, r2
     27c:	b2db      	uxtb	r3, r3
     27e:	7073      	strb	r3, [r6, #1]
     280:	7925      	ldrb	r5, [r4, #4]
     282:	2d30      	cmp	r5, #48	; 0x30
     284:	d01e      	beq.n	2c4 <adc_init+0x11c>
     286:	d808      	bhi.n	29a <adc_init+0xf2>
     288:	2d10      	cmp	r5, #16
     28a:	d018      	beq.n	2be <adc_init+0x116>
     28c:	2d20      	cmp	r5, #32
     28e:	d019      	beq.n	2c4 <adc_init+0x11c>
     290:	2d00      	cmp	r5, #0
     292:	d000      	beq.n	296 <adc_init+0xee>
     294:	e0f8      	b.n	488 <adc_init+0x2e0>
     296:	1c2b      	adds	r3, r5, #0
     298:	e015      	b.n	2c6 <adc_init+0x11e>
     29a:	2d32      	cmp	r5, #50	; 0x32
     29c:	d009      	beq.n	2b2 <adc_init+0x10a>
     29e:	d314      	bcc.n	2ca <adc_init+0x122>
     2a0:	2d33      	cmp	r5, #51	; 0x33
     2a2:	d00a      	beq.n	2ba <adc_init+0x112>
     2a4:	2d34      	cmp	r5, #52	; 0x34
     2a6:	d000      	beq.n	2aa <adc_init+0x102>
     2a8:	e0ee      	b.n	488 <adc_init+0x2e0>
     2aa:	7c62      	ldrb	r2, [r4, #17]
     2ac:	7c23      	ldrb	r3, [r4, #16]
     2ae:	2510      	movs	r5, #16
     2b0:	e00e      	b.n	2d0 <adc_init+0x128>
     2b2:	2304      	movs	r3, #4
     2b4:	2510      	movs	r5, #16
     2b6:	2202      	movs	r2, #2
     2b8:	e00a      	b.n	2d0 <adc_init+0x128>
     2ba:	2306      	movs	r3, #6
     2bc:	e006      	b.n	2cc <adc_init+0x124>
     2be:	2308      	movs	r3, #8
     2c0:	2200      	movs	r2, #0
     2c2:	e005      	b.n	2d0 <adc_init+0x128>
     2c4:	2300      	movs	r3, #0
     2c6:	1c1a      	adds	r2, r3, #0
     2c8:	e002      	b.n	2d0 <adc_init+0x128>
     2ca:	2302      	movs	r3, #2
     2cc:	2510      	movs	r5, #16
     2ce:	2201      	movs	r2, #1
     2d0:	2170      	movs	r1, #112	; 0x70
     2d2:	0112      	lsls	r2, r2, #4
     2d4:	400a      	ands	r2, r1
     2d6:	4313      	orrs	r3, r2
     2d8:	70b3      	strb	r3, [r6, #2]
     2da:	7de3      	ldrb	r3, [r4, #23]
     2dc:	2b3f      	cmp	r3, #63	; 0x3f
     2de:	d900      	bls.n	2e2 <adc_init+0x13a>
     2e0:	e0d2      	b.n	488 <adc_init+0x2e0>
     2e2:	70f3      	strb	r3, [r6, #3]
     2e4:	9800      	ldr	r0, [sp, #0]
     2e6:	4f70      	ldr	r7, [pc, #448]	; (4a8 <adc_init+0x300>)
     2e8:	47b8      	blx	r7
     2ea:	2800      	cmp	r0, #0
     2ec:	d1fa      	bne.n	2e4 <adc_init+0x13c>
     2ee:	7ce2      	ldrb	r2, [r4, #19]
     2f0:	8863      	ldrh	r3, [r4, #2]
     2f2:	4313      	orrs	r3, r2
     2f4:	1d62      	adds	r2, r4, #5
     2f6:	9202      	str	r2, [sp, #8]
     2f8:	7fd2      	ldrb	r2, [r2, #31]
     2fa:	00d2      	lsls	r2, r2, #3
     2fc:	4313      	orrs	r3, r2
     2fe:	7d22      	ldrb	r2, [r4, #20]
     300:	0092      	lsls	r2, r2, #2
     302:	4313      	orrs	r3, r2
     304:	7ca2      	ldrb	r2, [r4, #18]
     306:	0052      	lsls	r2, r2, #1
     308:	4313      	orrs	r3, r2
     30a:	432b      	orrs	r3, r5
     30c:	80b3      	strh	r3, [r6, #4]
     30e:	7e23      	ldrb	r3, [r4, #24]
     310:	2b00      	cmp	r3, #0
     312:	d061      	beq.n	3d8 <adc_init+0x230>
     314:	2d10      	cmp	r5, #16
     316:	d04b      	beq.n	3b0 <adc_init+0x208>
     318:	d802      	bhi.n	320 <adc_init+0x178>
     31a:	2d00      	cmp	r5, #0
     31c:	d031      	beq.n	382 <adc_init+0x1da>
     31e:	e05b      	b.n	3d8 <adc_init+0x230>
     320:	2d20      	cmp	r5, #32
     322:	d017      	beq.n	354 <adc_init+0x1ac>
     324:	2d30      	cmp	r5, #48	; 0x30
     326:	d157      	bne.n	3d8 <adc_init+0x230>
     328:	7ce3      	ldrb	r3, [r4, #19]
     32a:	69e2      	ldr	r2, [r4, #28]
     32c:	2b00      	cmp	r3, #0
     32e:	d009      	beq.n	344 <adc_init+0x19c>
     330:	1c13      	adds	r3, r2, #0
     332:	3380      	adds	r3, #128	; 0x80
     334:	2bff      	cmp	r3, #255	; 0xff
     336:	d900      	bls.n	33a <adc_init+0x192>
     338:	e0a6      	b.n	488 <adc_init+0x2e0>
     33a:	6a23      	ldr	r3, [r4, #32]
     33c:	3380      	adds	r3, #128	; 0x80
     33e:	2bff      	cmp	r3, #255	; 0xff
     340:	d900      	bls.n	344 <adc_init+0x19c>
     342:	e0a1      	b.n	488 <adc_init+0x2e0>
     344:	2aff      	cmp	r2, #255	; 0xff
     346:	dd00      	ble.n	34a <adc_init+0x1a2>
     348:	e09e      	b.n	488 <adc_init+0x2e0>
     34a:	6a23      	ldr	r3, [r4, #32]
     34c:	2bff      	cmp	r3, #255	; 0xff
     34e:	dd00      	ble.n	352 <adc_init+0x1aa>
     350:	e09a      	b.n	488 <adc_init+0x2e0>
     352:	e041      	b.n	3d8 <adc_init+0x230>
     354:	7ce2      	ldrb	r2, [r4, #19]
     356:	69e1      	ldr	r1, [r4, #28]
     358:	4b54      	ldr	r3, [pc, #336]	; (4ac <adc_init+0x304>)
     35a:	2a00      	cmp	r2, #0
     35c:	d00c      	beq.n	378 <adc_init+0x1d0>
     35e:	2280      	movs	r2, #128	; 0x80
     360:	0092      	lsls	r2, r2, #2
     362:	188a      	adds	r2, r1, r2
     364:	429a      	cmp	r2, r3
     366:	d900      	bls.n	36a <adc_init+0x1c2>
     368:	e08e      	b.n	488 <adc_init+0x2e0>
     36a:	2080      	movs	r0, #128	; 0x80
     36c:	6a22      	ldr	r2, [r4, #32]
     36e:	0080      	lsls	r0, r0, #2
     370:	1812      	adds	r2, r2, r0
     372:	429a      	cmp	r2, r3
     374:	d900      	bls.n	378 <adc_init+0x1d0>
     376:	e087      	b.n	488 <adc_init+0x2e0>
     378:	4299      	cmp	r1, r3
     37a:	dd00      	ble.n	37e <adc_init+0x1d6>
     37c:	e084      	b.n	488 <adc_init+0x2e0>
     37e:	4b4b      	ldr	r3, [pc, #300]	; (4ac <adc_init+0x304>)
     380:	e012      	b.n	3a8 <adc_init+0x200>
     382:	7ce2      	ldrb	r2, [r4, #19]
     384:	69e1      	ldr	r1, [r4, #28]
     386:	4b4a      	ldr	r3, [pc, #296]	; (4b0 <adc_init+0x308>)
     388:	2a00      	cmp	r2, #0
     38a:	d00a      	beq.n	3a2 <adc_init+0x1fa>
     38c:	2280      	movs	r2, #128	; 0x80
     38e:	0112      	lsls	r2, r2, #4
     390:	188a      	adds	r2, r1, r2
     392:	429a      	cmp	r2, r3
     394:	d878      	bhi.n	488 <adc_init+0x2e0>
     396:	2080      	movs	r0, #128	; 0x80
     398:	6a22      	ldr	r2, [r4, #32]
     39a:	0100      	lsls	r0, r0, #4
     39c:	1812      	adds	r2, r2, r0
     39e:	429a      	cmp	r2, r3
     3a0:	d872      	bhi.n	488 <adc_init+0x2e0>
     3a2:	4299      	cmp	r1, r3
     3a4:	dc70      	bgt.n	488 <adc_init+0x2e0>
     3a6:	4b42      	ldr	r3, [pc, #264]	; (4b0 <adc_init+0x308>)
     3a8:	6a22      	ldr	r2, [r4, #32]
     3aa:	429a      	cmp	r2, r3
     3ac:	dc6c      	bgt.n	488 <adc_init+0x2e0>
     3ae:	e013      	b.n	3d8 <adc_init+0x230>
     3b0:	7ce2      	ldrb	r2, [r4, #19]
     3b2:	69e1      	ldr	r1, [r4, #28]
     3b4:	4b3f      	ldr	r3, [pc, #252]	; (4b4 <adc_init+0x30c>)
     3b6:	2a00      	cmp	r2, #0
     3b8:	d00a      	beq.n	3d0 <adc_init+0x228>
     3ba:	2280      	movs	r2, #128	; 0x80
     3bc:	0212      	lsls	r2, r2, #8
     3be:	188a      	adds	r2, r1, r2
     3c0:	429a      	cmp	r2, r3
     3c2:	d861      	bhi.n	488 <adc_init+0x2e0>
     3c4:	2080      	movs	r0, #128	; 0x80
     3c6:	6a22      	ldr	r2, [r4, #32]
     3c8:	0200      	lsls	r0, r0, #8
     3ca:	1812      	adds	r2, r2, r0
     3cc:	429a      	cmp	r2, r3
     3ce:	d85b      	bhi.n	488 <adc_init+0x2e0>
     3d0:	4299      	cmp	r1, r3
     3d2:	dc59      	bgt.n	488 <adc_init+0x2e0>
     3d4:	4b37      	ldr	r3, [pc, #220]	; (4b4 <adc_init+0x30c>)
     3d6:	e7e7      	b.n	3a8 <adc_init+0x200>
     3d8:	9800      	ldr	r0, [sp, #0]
     3da:	47b8      	blx	r7
     3dc:	2800      	cmp	r0, #0
     3de:	d1fb      	bne.n	3d8 <adc_init+0x230>
     3e0:	7e23      	ldrb	r3, [r4, #24]
     3e2:	7233      	strb	r3, [r6, #8]
     3e4:	9800      	ldr	r0, [sp, #0]
     3e6:	47b8      	blx	r7
     3e8:	2800      	cmp	r0, #0
     3ea:	d1fb      	bne.n	3e4 <adc_init+0x23c>
     3ec:	8ba3      	ldrh	r3, [r4, #28]
     3ee:	83b3      	strh	r3, [r6, #28]
     3f0:	9800      	ldr	r0, [sp, #0]
     3f2:	47b8      	blx	r7
     3f4:	2800      	cmp	r0, #0
     3f6:	d1fb      	bne.n	3f0 <adc_init+0x248>
     3f8:	8c23      	ldrh	r3, [r4, #32]
     3fa:	8433      	strh	r3, [r6, #32]
     3fc:	1c23      	adds	r3, r4, #0
     3fe:	332c      	adds	r3, #44	; 0x2c
     400:	781d      	ldrb	r5, [r3, #0]
     402:	2d00      	cmp	r5, #0
     404:	d003      	beq.n	40e <adc_init+0x266>
     406:	3d01      	subs	r5, #1
     408:	b2ed      	uxtb	r5, r5
     40a:	2d0f      	cmp	r5, #15
     40c:	d83c      	bhi.n	488 <adc_init+0x2e0>
     40e:	1c23      	adds	r3, r4, #0
     410:	332b      	adds	r3, #43	; 0x2b
     412:	9303      	str	r3, [sp, #12]
     414:	781b      	ldrb	r3, [r3, #0]
     416:	2b0f      	cmp	r3, #15
     418:	d836      	bhi.n	488 <adc_init+0x2e0>
     41a:	9800      	ldr	r0, [sp, #0]
     41c:	47b8      	blx	r7
     41e:	2800      	cmp	r0, #0
     420:	d1fb      	bne.n	41a <adc_init+0x272>
     422:	89e2      	ldrh	r2, [r4, #14]
     424:	7b23      	ldrb	r3, [r4, #12]
     426:	042d      	lsls	r5, r5, #16
     428:	4313      	orrs	r3, r2
     42a:	68a2      	ldr	r2, [r4, #8]
     42c:	4313      	orrs	r3, r2
     42e:	9a03      	ldr	r2, [sp, #12]
     430:	7812      	ldrb	r2, [r2, #0]
     432:	0512      	lsls	r2, r2, #20
     434:	4313      	orrs	r3, r2
     436:	431d      	orrs	r5, r3
     438:	9b01      	ldr	r3, [sp, #4]
     43a:	6135      	str	r5, [r6, #16]
     43c:	781b      	ldrb	r3, [r3, #0]
     43e:	7533      	strb	r3, [r6, #20]
     440:	230f      	movs	r3, #15
     442:	75b3      	strb	r3, [r6, #22]
     444:	9b02      	ldr	r3, [sp, #8]
     446:	7fdb      	ldrb	r3, [r3, #31]
     448:	2b00      	cmp	r3, #0
     44a:	d00c      	beq.n	466 <adc_init+0x2be>
     44c:	8ce3      	ldrh	r3, [r4, #38]	; 0x26
     44e:	4918      	ldr	r1, [pc, #96]	; (4b0 <adc_init+0x308>)
     450:	428b      	cmp	r3, r1
     452:	d819      	bhi.n	488 <adc_init+0x2e0>
     454:	84b3      	strh	r3, [r6, #36]	; 0x24
     456:	2380      	movs	r3, #128	; 0x80
     458:	8d22      	ldrh	r2, [r4, #40]	; 0x28
     45a:	011b      	lsls	r3, r3, #4
     45c:	18d3      	adds	r3, r2, r3
     45e:	b29b      	uxth	r3, r3
     460:	428b      	cmp	r3, r1
     462:	d811      	bhi.n	488 <adc_init+0x2e0>
     464:	84f2      	strh	r2, [r6, #38]	; 0x26
     466:	4b14      	ldr	r3, [pc, #80]	; (4b8 <adc_init+0x310>)
     468:	681a      	ldr	r2, [r3, #0]
     46a:	23e0      	movs	r3, #224	; 0xe0
     46c:	0150      	lsls	r0, r2, #5
     46e:	00db      	lsls	r3, r3, #3
     470:	4018      	ands	r0, r3
     472:	4b12      	ldr	r3, [pc, #72]	; (4bc <adc_init+0x314>)
     474:	0151      	lsls	r1, r2, #5
     476:	681a      	ldr	r2, [r3, #0]
     478:	0ed3      	lsrs	r3, r2, #27
     47a:	430b      	orrs	r3, r1
     47c:	b2da      	uxtb	r2, r3
     47e:	1c03      	adds	r3, r0, #0
     480:	4313      	orrs	r3, r2
     482:	8533      	strh	r3, [r6, #40]	; 0x28
     484:	2300      	movs	r3, #0
     486:	e000      	b.n	48a <adc_init+0x2e2>
     488:	2317      	movs	r3, #23
     48a:	1c18      	adds	r0, r3, #0
     48c:	b007      	add	sp, #28
     48e:	bdf0      	pop	{r4, r5, r6, r7, pc}
     490:	40000400 	.word	0x40000400
     494:	40000800 	.word	0x40000800
     498:	20000728 	.word	0x20000728
     49c:	00002501 	.word	0x00002501
     4a0:	0000247d 	.word	0x0000247d
     4a4:	0000011d 	.word	0x0000011d
     4a8:	00000115 	.word	0x00000115
     4ac:	000003ff 	.word	0x000003ff
     4b0:	00000fff 	.word	0x00000fff
     4b4:	0000ffff 	.word	0x0000ffff
     4b8:	00806024 	.word	0x00806024
     4bc:	00806020 	.word	0x00806020

000004c0 <adc_start_conversion>:
     4c0:	6803      	ldr	r3, [r0, #0]
     4c2:	7e5a      	ldrb	r2, [r3, #25]
     4c4:	b252      	sxtb	r2, r2
     4c6:	2a00      	cmp	r2, #0
     4c8:	dbfb      	blt.n	4c2 <adc_start_conversion+0x2>
     4ca:	2102      	movs	r1, #2
     4cc:	7b1a      	ldrb	r2, [r3, #12]
     4ce:	430a      	orrs	r2, r1
     4d0:	731a      	strb	r2, [r3, #12]
     4d2:	6802      	ldr	r2, [r0, #0]
     4d4:	7e53      	ldrb	r3, [r2, #25]
     4d6:	b25b      	sxtb	r3, r3
     4d8:	2b00      	cmp	r3, #0
     4da:	dbfb      	blt.n	4d4 <adc_start_conversion+0x14>
     4dc:	4770      	bx	lr
	...

000004e0 <ADC_Handler>:
     4e0:	b538      	push	{r3, r4, r5, lr}
     4e2:	4b28      	ldr	r3, [pc, #160]	; (584 <ADC_Handler+0xa4>)
     4e4:	681c      	ldr	r4, [r3, #0]
     4e6:	2301      	movs	r3, #1
     4e8:	6822      	ldr	r2, [r4, #0]
     4ea:	7e15      	ldrb	r5, [r2, #24]
     4ec:	b2ed      	uxtb	r5, r5
     4ee:	421d      	tst	r5, r3
     4f0:	d01d      	beq.n	52e <ADC_Handler+0x4e>
     4f2:	7ee1      	ldrb	r1, [r4, #27]
     4f4:	4219      	tst	r1, r3
     4f6:	d01a      	beq.n	52e <ADC_Handler+0x4e>
     4f8:	7ea1      	ldrb	r1, [r4, #26]
     4fa:	4219      	tst	r1, r3
     4fc:	d017      	beq.n	52e <ADC_Handler+0x4e>
     4fe:	7613      	strb	r3, [r2, #24]
     500:	6821      	ldr	r1, [r4, #0]
     502:	7e4b      	ldrb	r3, [r1, #25]
     504:	b25b      	sxtb	r3, r3
     506:	2b00      	cmp	r3, #0
     508:	dbfb      	blt.n	502 <ADC_Handler+0x22>
     50a:	6962      	ldr	r2, [r4, #20]
     50c:	1c93      	adds	r3, r2, #2
     50e:	6163      	str	r3, [r4, #20]
     510:	8b4b      	ldrh	r3, [r1, #26]
     512:	b29b      	uxth	r3, r3
     514:	8013      	strh	r3, [r2, #0]
     516:	8b23      	ldrh	r3, [r4, #24]
     518:	3b01      	subs	r3, #1
     51a:	b29b      	uxth	r3, r3
     51c:	8323      	strh	r3, [r4, #24]
     51e:	2b00      	cmp	r3, #0
     520:	d024      	beq.n	56c <ADC_Handler+0x8c>
     522:	7f63      	ldrb	r3, [r4, #29]
     524:	2b00      	cmp	r3, #0
     526:	d002      	beq.n	52e <ADC_Handler+0x4e>
     528:	1c20      	adds	r0, r4, #0
     52a:	4b17      	ldr	r3, [pc, #92]	; (588 <ADC_Handler+0xa8>)
     52c:	4798      	blx	r3
     52e:	2304      	movs	r3, #4
     530:	421d      	tst	r5, r3
     532:	d00b      	beq.n	54c <ADC_Handler+0x6c>
     534:	6822      	ldr	r2, [r4, #0]
     536:	7613      	strb	r3, [r2, #24]
     538:	7ee2      	ldrb	r2, [r4, #27]
     53a:	3b02      	subs	r3, #2
     53c:	421a      	tst	r2, r3
     53e:	d005      	beq.n	54c <ADC_Handler+0x6c>
     540:	7ea2      	ldrb	r2, [r4, #26]
     542:	421a      	tst	r2, r3
     544:	d002      	beq.n	54c <ADC_Handler+0x6c>
     546:	1c20      	adds	r0, r4, #0
     548:	68e3      	ldr	r3, [r4, #12]
     54a:	4798      	blx	r3
     54c:	2302      	movs	r3, #2
     54e:	421d      	tst	r5, r3
     550:	d017      	beq.n	582 <ADC_Handler+0xa2>
     552:	6822      	ldr	r2, [r4, #0]
     554:	7613      	strb	r3, [r2, #24]
     556:	7ee2      	ldrb	r2, [r4, #27]
     558:	18db      	adds	r3, r3, r3
     55a:	421a      	tst	r2, r3
     55c:	d011      	beq.n	582 <ADC_Handler+0xa2>
     55e:	7ea2      	ldrb	r2, [r4, #26]
     560:	421a      	tst	r2, r3
     562:	d00e      	beq.n	582 <ADC_Handler+0xa2>
     564:	6923      	ldr	r3, [r4, #16]
     566:	1c20      	adds	r0, r4, #0
     568:	4798      	blx	r3
     56a:	e00a      	b.n	582 <ADC_Handler+0xa2>
     56c:	7f22      	ldrb	r2, [r4, #28]
     56e:	2a05      	cmp	r2, #5
     570:	d1dd      	bne.n	52e <ADC_Handler+0x4e>
     572:	7723      	strb	r3, [r4, #28]
     574:	2301      	movs	r3, #1
     576:	6822      	ldr	r2, [r4, #0]
     578:	1c20      	adds	r0, r4, #0
     57a:	7593      	strb	r3, [r2, #22]
     57c:	68a3      	ldr	r3, [r4, #8]
     57e:	4798      	blx	r3
     580:	e7d5      	b.n	52e <ADC_Handler+0x4e>
     582:	bd38      	pop	{r3, r4, r5, pc}
     584:	20000728 	.word	0x20000728
     588:	000004c1 	.word	0x000004c1

0000058c <adc_register_callback>:
     58c:	1c93      	adds	r3, r2, #2
     58e:	009b      	lsls	r3, r3, #2
     590:	5019      	str	r1, [r3, r0]
     592:	2301      	movs	r3, #1
     594:	4093      	lsls	r3, r2
     596:	1c1a      	adds	r2, r3, #0
     598:	7e83      	ldrb	r3, [r0, #26]
     59a:	431a      	orrs	r2, r3
     59c:	7682      	strb	r2, [r0, #26]
     59e:	4770      	bx	lr

000005a0 <_tc_interrupt_handler>:
     5a0:	b570      	push	{r4, r5, r6, lr}
     5a2:	2601      	movs	r6, #1
     5a4:	4b14      	ldr	r3, [pc, #80]	; (5f8 <_tc_interrupt_handler+0x58>)
     5a6:	0080      	lsls	r0, r0, #2
     5a8:	58c4      	ldr	r4, [r0, r3]
     5aa:	6823      	ldr	r3, [r4, #0]
     5ac:	7e25      	ldrb	r5, [r4, #24]
     5ae:	7b9b      	ldrb	r3, [r3, #14]
     5b0:	401d      	ands	r5, r3
     5b2:	7e63      	ldrb	r3, [r4, #25]
     5b4:	401d      	ands	r5, r3
     5b6:	4235      	tst	r5, r6
     5b8:	d004      	beq.n	5c4 <_tc_interrupt_handler+0x24>
     5ba:	68a3      	ldr	r3, [r4, #8]
     5bc:	1c20      	adds	r0, r4, #0
     5be:	4798      	blx	r3
     5c0:	6823      	ldr	r3, [r4, #0]
     5c2:	739e      	strb	r6, [r3, #14]
     5c4:	2602      	movs	r6, #2
     5c6:	4235      	tst	r5, r6
     5c8:	d004      	beq.n	5d4 <_tc_interrupt_handler+0x34>
     5ca:	68e3      	ldr	r3, [r4, #12]
     5cc:	1c20      	adds	r0, r4, #0
     5ce:	4798      	blx	r3
     5d0:	6823      	ldr	r3, [r4, #0]
     5d2:	739e      	strb	r6, [r3, #14]
     5d4:	2610      	movs	r6, #16
     5d6:	4235      	tst	r5, r6
     5d8:	d004      	beq.n	5e4 <_tc_interrupt_handler+0x44>
     5da:	6923      	ldr	r3, [r4, #16]
     5dc:	1c20      	adds	r0, r4, #0
     5de:	4798      	blx	r3
     5e0:	6823      	ldr	r3, [r4, #0]
     5e2:	739e      	strb	r6, [r3, #14]
     5e4:	2620      	movs	r6, #32
     5e6:	4235      	tst	r5, r6
     5e8:	d004      	beq.n	5f4 <_tc_interrupt_handler+0x54>
     5ea:	6963      	ldr	r3, [r4, #20]
     5ec:	1c20      	adds	r0, r4, #0
     5ee:	4798      	blx	r3
     5f0:	6823      	ldr	r3, [r4, #0]
     5f2:	739e      	strb	r6, [r3, #14]
     5f4:	bd70      	pop	{r4, r5, r6, pc}
     5f6:	46c0      	nop			; (mov r8, r8)
     5f8:	2000072c 	.word	0x2000072c

000005fc <TC3_Handler>:
     5fc:	b508      	push	{r3, lr}
     5fe:	2000      	movs	r0, #0
     600:	4b01      	ldr	r3, [pc, #4]	; (608 <TC3_Handler+0xc>)
     602:	4798      	blx	r3
     604:	bd08      	pop	{r3, pc}
     606:	46c0      	nop			; (mov r8, r8)
     608:	000005a1 	.word	0x000005a1

0000060c <TC4_Handler>:
     60c:	b508      	push	{r3, lr}
     60e:	2001      	movs	r0, #1
     610:	4b01      	ldr	r3, [pc, #4]	; (618 <TC4_Handler+0xc>)
     612:	4798      	blx	r3
     614:	bd08      	pop	{r3, pc}
     616:	46c0      	nop			; (mov r8, r8)
     618:	000005a1 	.word	0x000005a1

0000061c <TC5_Handler>:
     61c:	b508      	push	{r3, lr}
     61e:	2002      	movs	r0, #2
     620:	4b01      	ldr	r3, [pc, #4]	; (628 <TC5_Handler+0xc>)
     622:	4798      	blx	r3
     624:	bd08      	pop	{r3, pc}
     626:	46c0      	nop			; (mov r8, r8)
     628:	000005a1 	.word	0x000005a1

0000062c <TC6_Handler>:
     62c:	b508      	push	{r3, lr}
     62e:	2003      	movs	r0, #3
     630:	4b01      	ldr	r3, [pc, #4]	; (638 <TC6_Handler+0xc>)
     632:	4798      	blx	r3
     634:	bd08      	pop	{r3, pc}
     636:	46c0      	nop			; (mov r8, r8)
     638:	000005a1 	.word	0x000005a1

0000063c <TC7_Handler>:
     63c:	b508      	push	{r3, lr}
     63e:	2004      	movs	r0, #4
     640:	4b01      	ldr	r3, [pc, #4]	; (648 <TC7_Handler+0xc>)
     642:	4798      	blx	r3
     644:	bd08      	pop	{r3, pc}
     646:	46c0      	nop			; (mov r8, r8)
     648:	000005a1 	.word	0x000005a1

0000064c <ui_wakeup_handler>:
     64c:	b508      	push	{r3, lr}
     64e:	4b03      	ldr	r3, [pc, #12]	; (65c <ui_wakeup_handler+0x10>)
     650:	4798      	blx	r3
     652:	2280      	movs	r2, #128	; 0x80
     654:	4b02      	ldr	r3, [pc, #8]	; (660 <ui_wakeup_handler+0x14>)
     656:	05d2      	lsls	r2, r2, #23
     658:	601a      	str	r2, [r3, #0]
     65a:	bd08      	pop	{r3, pc}
     65c:	000030cd 	.word	0x000030cd
     660:	41004494 	.word	0x41004494

00000664 <ui_init>:
     664:	b57f      	push	{r0, r1, r2, r3, r4, r5, r6, lr}
     666:	ac01      	add	r4, sp, #4
     668:	1c20      	adds	r0, r4, #0
     66a:	4b0e      	ldr	r3, [pc, #56]	; (6a4 <ui_init+0x40>)
     66c:	4798      	blx	r3
     66e:	2301      	movs	r3, #1
     670:	250f      	movs	r5, #15
     672:	2600      	movs	r6, #0
     674:	7223      	strb	r3, [r4, #8]
     676:	72a3      	strb	r3, [r4, #10]
     678:	18db      	adds	r3, r3, r3
     67a:	1c28      	adds	r0, r5, #0
     67c:	72e3      	strb	r3, [r4, #11]
     67e:	1c21      	adds	r1, r4, #0
     680:	4b09      	ldr	r3, [pc, #36]	; (6a8 <ui_init+0x44>)
     682:	9501      	str	r5, [sp, #4]
     684:	6066      	str	r6, [r4, #4]
     686:	4798      	blx	r3
     688:	1c32      	adds	r2, r6, #0
     68a:	1c29      	adds	r1, r5, #0
     68c:	4b07      	ldr	r3, [pc, #28]	; (6ac <ui_init+0x48>)
     68e:	4808      	ldr	r0, [pc, #32]	; (6b0 <ui_init+0x4c>)
     690:	4798      	blx	r3
     692:	1c28      	adds	r0, r5, #0
     694:	1c31      	adds	r1, r6, #0
     696:	4b07      	ldr	r3, [pc, #28]	; (6b4 <ui_init+0x50>)
     698:	4798      	blx	r3
     69a:	2280      	movs	r2, #128	; 0x80
     69c:	4b06      	ldr	r3, [pc, #24]	; (6b8 <ui_init+0x54>)
     69e:	05d2      	lsls	r2, r2, #23
     6a0:	601a      	str	r2, [r3, #0]
     6a2:	bd7f      	pop	{r0, r1, r2, r3, r4, r5, r6, pc}
     6a4:	00001659 	.word	0x00001659
     6a8:	0000166d 	.word	0x0000166d
     6ac:	00001515 	.word	0x00001515
     6b0:	0000064d 	.word	0x0000064d
     6b4:	0000153d 	.word	0x0000153d
     6b8:	41004498 	.word	0x41004498

000006bc <ui_powerdown>:
     6bc:	2280      	movs	r2, #128	; 0x80
     6be:	4b02      	ldr	r3, [pc, #8]	; (6c8 <ui_powerdown+0xc>)
     6c0:	05d2      	lsls	r2, r2, #23
     6c2:	601a      	str	r2, [r3, #0]
     6c4:	4770      	bx	lr
     6c6:	46c0      	nop			; (mov r8, r8)
     6c8:	41004498 	.word	0x41004498

000006cc <ui_wakeup_enable>:
     6cc:	b508      	push	{r3, lr}
     6ce:	200f      	movs	r0, #15
     6d0:	2100      	movs	r1, #0
     6d2:	4b01      	ldr	r3, [pc, #4]	; (6d8 <ui_wakeup_enable+0xc>)
     6d4:	4798      	blx	r3
     6d6:	bd08      	pop	{r3, pc}
     6d8:	0000153d 	.word	0x0000153d

000006dc <ui_wakeup_disable>:
     6dc:	b508      	push	{r3, lr}
     6de:	200f      	movs	r0, #15
     6e0:	2100      	movs	r1, #0
     6e2:	4b01      	ldr	r3, [pc, #4]	; (6e8 <ui_wakeup_disable+0xc>)
     6e4:	4798      	blx	r3
     6e6:	bd08      	pop	{r3, pc}
     6e8:	00001561 	.word	0x00001561

000006ec <ui_wakeup>:
     6ec:	2280      	movs	r2, #128	; 0x80
     6ee:	4b02      	ldr	r3, [pc, #8]	; (6f8 <ui_wakeup+0xc>)
     6f0:	05d2      	lsls	r2, r2, #23
     6f2:	601a      	str	r2, [r3, #0]
     6f4:	4770      	bx	lr
     6f6:	46c0      	nop			; (mov r8, r8)
     6f8:	41004494 	.word	0x41004494

000006fc <ui_com_open>:
     6fc:	4770      	bx	lr

000006fe <ui_com_close>:
     6fe:	4770      	bx	lr

00000700 <ui_com_rx_start>:
     700:	4770      	bx	lr

00000702 <ui_com_rx_stop>:
     702:	4770      	bx	lr

00000704 <ui_com_tx_start>:
     704:	4770      	bx	lr

00000706 <ui_com_tx_stop>:
     706:	4770      	bx	lr

00000708 <ui_com_overflow>:
     708:	4770      	bx	lr
	...

0000070c <ui_process>:
     70c:	21fa      	movs	r1, #250	; 0xfa
     70e:	b508      	push	{r3, lr}
     710:	0089      	lsls	r1, r1, #2
     712:	4b09      	ldr	r3, [pc, #36]	; (738 <ui_process+0x2c>)
     714:	4798      	blx	r3
     716:	b289      	uxth	r1, r1
     718:	2900      	cmp	r1, #0
     71a:	d103      	bne.n	724 <ui_process+0x18>
     71c:	2280      	movs	r2, #128	; 0x80
     71e:	4b07      	ldr	r3, [pc, #28]	; (73c <ui_process+0x30>)
     720:	05d2      	lsls	r2, r2, #23
     722:	e006      	b.n	732 <ui_process+0x26>
     724:	23fa      	movs	r3, #250	; 0xfa
     726:	005b      	lsls	r3, r3, #1
     728:	4299      	cmp	r1, r3
     72a:	d103      	bne.n	734 <ui_process+0x28>
     72c:	2280      	movs	r2, #128	; 0x80
     72e:	4b04      	ldr	r3, [pc, #16]	; (740 <ui_process+0x34>)
     730:	05d2      	lsls	r2, r2, #23
     732:	601a      	str	r2, [r3, #0]
     734:	bd08      	pop	{r3, pc}
     736:	46c0      	nop			; (mov r8, r8)
     738:	0000437d 	.word	0x0000437d
     73c:	41004494 	.word	0x41004494
     740:	41004498 	.word	0x41004498

00000744 <cpu_irq_save>:
     744:	b082      	sub	sp, #8
     746:	f3ef 8310 	mrs	r3, PRIMASK
     74a:	425a      	negs	r2, r3
     74c:	4153      	adcs	r3, r2
     74e:	9301      	str	r3, [sp, #4]
     750:	b672      	cpsid	i
     752:	f3bf 8f5f 	dmb	sy
     756:	2200      	movs	r2, #0
     758:	4b02      	ldr	r3, [pc, #8]	; (764 <cpu_irq_save+0x20>)
     75a:	701a      	strb	r2, [r3, #0]
     75c:	9801      	ldr	r0, [sp, #4]
     75e:	b002      	add	sp, #8
     760:	4770      	bx	lr
     762:	46c0      	nop			; (mov r8, r8)
     764:	200000e8 	.word	0x200000e8

00000768 <udi_cdc_comm_disable>:
     768:	4a02      	ldr	r2, [pc, #8]	; (774 <udi_cdc_comm_disable+0xc>)
     76a:	7813      	ldrb	r3, [r2, #0]
     76c:	3b01      	subs	r3, #1
     76e:	b2db      	uxtb	r3, r3
     770:	7013      	strb	r3, [r2, #0]
     772:	4770      	bx	lr
     774:	2000039c 	.word	0x2000039c

00000778 <udi_cdc_data_setup>:
     778:	2000      	movs	r0, #0
     77a:	4770      	bx	lr

0000077c <udi_cdc_getsetting>:
     77c:	2000      	movs	r0, #0
     77e:	4770      	bx	lr

00000780 <udi_cdc_line_coding_received>:
     780:	b508      	push	{r3, lr}
     782:	2000      	movs	r0, #0
     784:	4901      	ldr	r1, [pc, #4]	; (78c <udi_cdc_line_coding_received+0xc>)
     786:	4b02      	ldr	r3, [pc, #8]	; (790 <udi_cdc_line_coding_received+0x10>)
     788:	4798      	blx	r3
     78a:	bd08      	pop	{r3, pc}
     78c:	20000108 	.word	0x20000108
     790:	0000410d 	.word	0x0000410d

00000794 <udi_cdc_data_disable>:
     794:	b508      	push	{r3, lr}
     796:	4a06      	ldr	r2, [pc, #24]	; (7b0 <udi_cdc_data_disable+0x1c>)
     798:	7813      	ldrb	r3, [r2, #0]
     79a:	3b01      	subs	r3, #1
     79c:	b2db      	uxtb	r3, r3
     79e:	7013      	strb	r3, [r2, #0]
     7a0:	7810      	ldrb	r0, [r2, #0]
     7a2:	4b04      	ldr	r3, [pc, #16]	; (7b4 <udi_cdc_data_disable+0x20>)
     7a4:	b2c0      	uxtb	r0, r0
     7a6:	4798      	blx	r3
     7a8:	2200      	movs	r2, #0
     7aa:	4b03      	ldr	r3, [pc, #12]	; (7b8 <udi_cdc_data_disable+0x24>)
     7ac:	701a      	strb	r2, [r3, #0]
     7ae:	bd08      	pop	{r3, pc}
     7b0:	2000010f 	.word	0x2000010f
     7b4:	00003f15 	.word	0x00003f15
     7b8:	200003a2 	.word	0x200003a2

000007bc <cpu_irq_restore>:
     7bc:	2800      	cmp	r0, #0
     7be:	d005      	beq.n	7cc <cpu_irq_restore+0x10>
     7c0:	2201      	movs	r2, #1
     7c2:	4b03      	ldr	r3, [pc, #12]	; (7d0 <cpu_irq_restore+0x14>)
     7c4:	701a      	strb	r2, [r3, #0]
     7c6:	f3bf 8f5f 	dmb	sy
     7ca:	b662      	cpsie	i
     7cc:	4770      	bx	lr
     7ce:	46c0      	nop			; (mov r8, r8)
     7d0:	200000e8 	.word	0x200000e8

000007d4 <udi_cdc_comm_enable>:
     7d4:	b538      	push	{r3, r4, r5, lr}
     7d6:	2400      	movs	r4, #0
     7d8:	22a1      	movs	r2, #161	; 0xa1
     7da:	4b11      	ldr	r3, [pc, #68]	; (820 <udi_cdc_comm_enable+0x4c>)
     7dc:	4d11      	ldr	r5, [pc, #68]	; (824 <udi_cdc_comm_enable+0x50>)
     7de:	4912      	ldr	r1, [pc, #72]	; (828 <udi_cdc_comm_enable+0x54>)
     7e0:	702c      	strb	r4, [r5, #0]
     7e2:	801c      	strh	r4, [r3, #0]
     7e4:	4b11      	ldr	r3, [pc, #68]	; (82c <udi_cdc_comm_enable+0x58>)
     7e6:	1c20      	adds	r0, r4, #0
     7e8:	701a      	strb	r2, [r3, #0]
     7ea:	3a81      	subs	r2, #129	; 0x81
     7ec:	705a      	strb	r2, [r3, #1]
     7ee:	3a1e      	subs	r2, #30
     7f0:	805c      	strh	r4, [r3, #2]
     7f2:	809c      	strh	r4, [r3, #4]
     7f4:	80da      	strh	r2, [r3, #6]
     7f6:	811c      	strh	r4, [r3, #8]
     7f8:	23e1      	movs	r3, #225	; 0xe1
     7fa:	025b      	lsls	r3, r3, #9
     7fc:	600b      	str	r3, [r1, #0]
     7fe:	2308      	movs	r3, #8
     800:	710c      	strb	r4, [r1, #4]
     802:	718b      	strb	r3, [r1, #6]
     804:	714c      	strb	r4, [r1, #5]
     806:	4b0a      	ldr	r3, [pc, #40]	; (830 <udi_cdc_comm_enable+0x5c>)
     808:	4798      	blx	r3
     80a:	1c20      	adds	r0, r4, #0
     80c:	4b09      	ldr	r3, [pc, #36]	; (834 <udi_cdc_comm_enable+0x60>)
     80e:	4798      	blx	r3
     810:	42a0      	cmp	r0, r4
     812:	d003      	beq.n	81c <udi_cdc_comm_enable+0x48>
     814:	782b      	ldrb	r3, [r5, #0]
     816:	3301      	adds	r3, #1
     818:	b2db      	uxtb	r3, r3
     81a:	702b      	strb	r3, [r5, #0]
     81c:	bd38      	pop	{r3, r4, r5, pc}
     81e:	46c0      	nop			; (mov r8, r8)
     820:	20000636 	.word	0x20000636
     824:	2000039c 	.word	0x2000039c
     828:	20000108 	.word	0x20000108
     82c:	200003a8 	.word	0x200003a8
     830:	0000410d 	.word	0x0000410d
     834:	00003efd 	.word	0x00003efd

00000838 <udi_cdc_tx_send.isra.2>:
     838:	b5f0      	push	{r4, r5, r6, r7, lr}
     83a:	4b37      	ldr	r3, [pc, #220]	; (918 <udi_cdc_tx_send.isra.2+0xe0>)
     83c:	b087      	sub	sp, #28
     83e:	781a      	ldrb	r2, [r3, #0]
     840:	9304      	str	r3, [sp, #16]
     842:	2a00      	cmp	r2, #0
     844:	d166      	bne.n	914 <udi_cdc_tx_send.isra.2+0xdc>
     846:	4c35      	ldr	r4, [pc, #212]	; (91c <udi_cdc_tx_send.isra.2+0xe4>)
     848:	47a0      	blx	r4
     84a:	4d35      	ldr	r5, [pc, #212]	; (920 <udi_cdc_tx_send.isra.2+0xe8>)
     84c:	9402      	str	r4, [sp, #8]
     84e:	4b35      	ldr	r3, [pc, #212]	; (924 <udi_cdc_tx_send.isra.2+0xec>)
     850:	882c      	ldrh	r4, [r5, #0]
     852:	2800      	cmp	r0, #0
     854:	d000      	beq.n	858 <udi_cdc_tx_send.isra.2+0x20>
     856:	4b34      	ldr	r3, [pc, #208]	; (928 <udi_cdc_tx_send.isra.2+0xf0>)
     858:	4798      	blx	r3
     85a:	4284      	cmp	r4, r0
     85c:	d05a      	beq.n	914 <udi_cdc_tx_send.isra.2+0xdc>
     85e:	4b33      	ldr	r3, [pc, #204]	; (92c <udi_cdc_tx_send.isra.2+0xf4>)
     860:	4798      	blx	r3
     862:	4933      	ldr	r1, [pc, #204]	; (930 <udi_cdc_tx_send.isra.2+0xf8>)
     864:	4b33      	ldr	r3, [pc, #204]	; (934 <udi_cdc_tx_send.isra.2+0xfc>)
     866:	780c      	ldrb	r4, [r1, #0]
     868:	1c07      	adds	r7, r0, #0
     86a:	b2e4      	uxtb	r4, r4
     86c:	0062      	lsls	r2, r4, #1
     86e:	5ad2      	ldrh	r2, [r2, r3]
     870:	9105      	str	r1, [sp, #20]
     872:	9303      	str	r3, [sp, #12]
     874:	2a00      	cmp	r2, #0
     876:	d116      	bne.n	8a6 <udi_cdc_tx_send.isra.2+0x6e>
     878:	4e2f      	ldr	r6, [pc, #188]	; (938 <udi_cdc_tx_send.isra.2+0x100>)
     87a:	8833      	ldrh	r3, [r6, #0]
     87c:	3301      	adds	r3, #1
     87e:	8033      	strh	r3, [r6, #0]
     880:	9b02      	ldr	r3, [sp, #8]
     882:	4798      	blx	r3
     884:	2800      	cmp	r0, #0
     886:	d106      	bne.n	896 <udi_cdc_tx_send.isra.2+0x5e>
     888:	8833      	ldrh	r3, [r6, #0]
     88a:	2b63      	cmp	r3, #99	; 0x63
     88c:	d803      	bhi.n	896 <udi_cdc_tx_send.isra.2+0x5e>
     88e:	1c38      	adds	r0, r7, #0
     890:	4b2a      	ldr	r3, [pc, #168]	; (93c <udi_cdc_tx_send.isra.2+0x104>)
     892:	4798      	blx	r3
     894:	e03e      	b.n	914 <udi_cdc_tx_send.isra.2+0xdc>
     896:	9b02      	ldr	r3, [sp, #8]
     898:	4798      	blx	r3
     89a:	2800      	cmp	r0, #0
     89c:	d003      	beq.n	8a6 <udi_cdc_tx_send.isra.2+0x6e>
     89e:	8832      	ldrh	r2, [r6, #0]
     8a0:	4b27      	ldr	r3, [pc, #156]	; (940 <udi_cdc_tx_send.isra.2+0x108>)
     8a2:	429a      	cmp	r2, r3
     8a4:	d9f3      	bls.n	88e <udi_cdc_tx_send.isra.2+0x56>
     8a6:	2200      	movs	r2, #0
     8a8:	4b23      	ldr	r3, [pc, #140]	; (938 <udi_cdc_tx_send.isra.2+0x100>)
     8aa:	801a      	strh	r2, [r3, #0]
     8ac:	4b25      	ldr	r3, [pc, #148]	; (944 <udi_cdc_tx_send.isra.2+0x10c>)
     8ae:	781b      	ldrb	r3, [r3, #0]
     8b0:	4293      	cmp	r3, r2
     8b2:	d105      	bne.n	8c0 <udi_cdc_tx_send.isra.2+0x88>
     8b4:	4263      	negs	r3, r4
     8b6:	4163      	adcs	r3, r4
     8b8:	9a05      	ldr	r2, [sp, #20]
     8ba:	b2db      	uxtb	r3, r3
     8bc:	7013      	strb	r3, [r2, #0]
     8be:	e002      	b.n	8c6 <udi_cdc_tx_send.isra.2+0x8e>
     8c0:	4262      	negs	r2, r4
     8c2:	4154      	adcs	r4, r2
     8c4:	b2e4      	uxtb	r4, r4
     8c6:	2301      	movs	r3, #1
     8c8:	9a04      	ldr	r2, [sp, #16]
     8ca:	1c38      	adds	r0, r7, #0
     8cc:	7013      	strb	r3, [r2, #0]
     8ce:	4b1b      	ldr	r3, [pc, #108]	; (93c <udi_cdc_tx_send.isra.2+0x104>)
     8d0:	4798      	blx	r3
     8d2:	9b03      	ldr	r3, [sp, #12]
     8d4:	0067      	lsls	r7, r4, #1
     8d6:	5bde      	ldrh	r6, [r3, r7]
     8d8:	3e41      	subs	r6, #65	; 0x41
     8da:	3eff      	subs	r6, #255	; 0xff
     8dc:	1e73      	subs	r3, r6, #1
     8de:	419e      	sbcs	r6, r3
     8e0:	b2f6      	uxtb	r6, r6
     8e2:	2e00      	cmp	r6, #0
     8e4:	d008      	beq.n	8f8 <udi_cdc_tx_send.isra.2+0xc0>
     8e6:	9b02      	ldr	r3, [sp, #8]
     8e8:	4798      	blx	r3
     8ea:	4b0f      	ldr	r3, [pc, #60]	; (928 <udi_cdc_tx_send.isra.2+0xf0>)
     8ec:	2800      	cmp	r0, #0
     8ee:	d100      	bne.n	8f2 <udi_cdc_tx_send.isra.2+0xba>
     8f0:	4b0c      	ldr	r3, [pc, #48]	; (924 <udi_cdc_tx_send.isra.2+0xec>)
     8f2:	4798      	blx	r3
     8f4:	8028      	strh	r0, [r5, #0]
     8f6:	e000      	b.n	8fa <udi_cdc_tx_send.isra.2+0xc2>
     8f8:	802e      	strh	r6, [r5, #0]
     8fa:	01a2      	lsls	r2, r4, #6
     8fc:	0224      	lsls	r4, r4, #8
     8fe:	1914      	adds	r4, r2, r4
     900:	4911      	ldr	r1, [pc, #68]	; (948 <udi_cdc_tx_send.isra.2+0x110>)
     902:	4a12      	ldr	r2, [pc, #72]	; (94c <udi_cdc_tx_send.isra.2+0x114>)
     904:	9b03      	ldr	r3, [sp, #12]
     906:	1912      	adds	r2, r2, r4
     908:	5bdb      	ldrh	r3, [r3, r7]
     90a:	2081      	movs	r0, #129	; 0x81
     90c:	9100      	str	r1, [sp, #0]
     90e:	4c10      	ldr	r4, [pc, #64]	; (950 <udi_cdc_tx_send.isra.2+0x118>)
     910:	1c31      	adds	r1, r6, #0
     912:	47a0      	blx	r4
     914:	b007      	add	sp, #28
     916:	bdf0      	pop	{r4, r5, r6, r7, pc}
     918:	200003a4 	.word	0x200003a4
     91c:	00002c9d 	.word	0x00002c9d
     920:	200003a0 	.word	0x200003a0
     924:	00002ca1 	.word	0x00002ca1
     928:	00002cb1 	.word	0x00002cb1
     92c:	00000745 	.word	0x00000745
     930:	20000110 	.word	0x20000110
     934:	20000114 	.word	0x20000114
     938:	20000112 	.word	0x20000112
     93c:	000007bd 	.word	0x000007bd
     940:	0000031f 	.word	0x0000031f
     944:	20000635 	.word	0x20000635
     948:	00000961 	.word	0x00000961
     94c:	20000118 	.word	0x20000118
     950:	00002f39 	.word	0x00002f39

00000954 <udi_cdc_data_sof_notify>:
     954:	b508      	push	{r3, lr}
     956:	4b01      	ldr	r3, [pc, #4]	; (95c <udi_cdc_data_sof_notify+0x8>)
     958:	4798      	blx	r3
     95a:	bd08      	pop	{r3, pc}
     95c:	00000839 	.word	0x00000839

00000960 <udi_cdc_data_sent>:
     960:	b508      	push	{r3, lr}
     962:	2800      	cmp	r0, #0
     964:	d10c      	bne.n	980 <udi_cdc_data_sent+0x20>
     966:	4b07      	ldr	r3, [pc, #28]	; (984 <udi_cdc_data_sent+0x24>)
     968:	781b      	ldrb	r3, [r3, #0]
     96a:	425a      	negs	r2, r3
     96c:	4153      	adcs	r3, r2
     96e:	4a06      	ldr	r2, [pc, #24]	; (988 <udi_cdc_data_sent+0x28>)
     970:	005b      	lsls	r3, r3, #1
     972:	5298      	strh	r0, [r3, r2]
     974:	4b05      	ldr	r3, [pc, #20]	; (98c <udi_cdc_data_sent+0x2c>)
     976:	7018      	strb	r0, [r3, #0]
     978:	4b05      	ldr	r3, [pc, #20]	; (990 <udi_cdc_data_sent+0x30>)
     97a:	7018      	strb	r0, [r3, #0]
     97c:	4b05      	ldr	r3, [pc, #20]	; (994 <udi_cdc_data_sent+0x34>)
     97e:	4798      	blx	r3
     980:	bd08      	pop	{r3, pc}
     982:	46c0      	nop			; (mov r8, r8)
     984:	20000110 	.word	0x20000110
     988:	20000114 	.word	0x20000114
     98c:	20000635 	.word	0x20000635
     990:	200003a4 	.word	0x200003a4
     994:	00000839 	.word	0x00000839

00000998 <udi_cdc_ctrl_state_notify.isra.5>:
     998:	b573      	push	{r0, r1, r4, r5, r6, lr}
     99a:	4c09      	ldr	r4, [pc, #36]	; (9c0 <udi_cdc_ctrl_state_notify.isra.5+0x28>)
     99c:	7821      	ldrb	r1, [r4, #0]
     99e:	2900      	cmp	r1, #0
     9a0:	d10d      	bne.n	9be <udi_cdc_ctrl_state_notify.isra.5+0x26>
     9a2:	4b08      	ldr	r3, [pc, #32]	; (9c4 <udi_cdc_ctrl_state_notify.isra.5+0x2c>)
     9a4:	4a08      	ldr	r2, [pc, #32]	; (9c8 <udi_cdc_ctrl_state_notify.isra.5+0x30>)
     9a6:	881d      	ldrh	r5, [r3, #0]
     9a8:	8916      	ldrh	r6, [r2, #8]
     9aa:	42ae      	cmp	r6, r5
     9ac:	d007      	beq.n	9be <udi_cdc_ctrl_state_notify.isra.5+0x26>
     9ae:	881b      	ldrh	r3, [r3, #0]
     9b0:	4d06      	ldr	r5, [pc, #24]	; (9cc <udi_cdc_ctrl_state_notify.isra.5+0x34>)
     9b2:	8113      	strh	r3, [r2, #8]
     9b4:	4b06      	ldr	r3, [pc, #24]	; (9d0 <udi_cdc_ctrl_state_notify.isra.5+0x38>)
     9b6:	9300      	str	r3, [sp, #0]
     9b8:	230a      	movs	r3, #10
     9ba:	47a8      	blx	r5
     9bc:	7020      	strb	r0, [r4, #0]
     9be:	bd73      	pop	{r0, r1, r4, r5, r6, pc}
     9c0:	2000039d 	.word	0x2000039d
     9c4:	20000636 	.word	0x20000636
     9c8:	200003a8 	.word	0x200003a8
     9cc:	00002f39 	.word	0x00002f39
     9d0:	000009d5 	.word	0x000009d5

000009d4 <udi_cdc_serial_state_msg_sent>:
     9d4:	2100      	movs	r1, #0
     9d6:	b510      	push	{r4, lr}
     9d8:	247c      	movs	r4, #124	; 0x7c
     9da:	4b07      	ldr	r3, [pc, #28]	; (9f8 <udi_cdc_serial_state_msg_sent+0x24>)
     9dc:	1c10      	adds	r0, r2, #0
     9de:	7019      	strb	r1, [r3, #0]
     9e0:	4906      	ldr	r1, [pc, #24]	; (9fc <udi_cdc_serial_state_msg_sent+0x28>)
     9e2:	880b      	ldrh	r3, [r1, #0]
     9e4:	43a3      	bics	r3, r4
     9e6:	800b      	strh	r3, [r1, #0]
     9e8:	4905      	ldr	r1, [pc, #20]	; (a00 <udi_cdc_serial_state_msg_sent+0x2c>)
     9ea:	890b      	ldrh	r3, [r1, #8]
     9ec:	43a3      	bics	r3, r4
     9ee:	810b      	strh	r3, [r1, #8]
     9f0:	4b04      	ldr	r3, [pc, #16]	; (a04 <udi_cdc_serial_state_msg_sent+0x30>)
     9f2:	4798      	blx	r3
     9f4:	bd10      	pop	{r4, pc}
     9f6:	46c0      	nop			; (mov r8, r8)
     9f8:	2000039d 	.word	0x2000039d
     9fc:	20000636 	.word	0x20000636
     a00:	200003a8 	.word	0x200003a8
     a04:	00000999 	.word	0x00000999

00000a08 <udi_cdc_ctrl_state_change.isra.7>:
     a08:	b538      	push	{r3, r4, r5, lr}
     a0a:	4b0a      	ldr	r3, [pc, #40]	; (a34 <udi_cdc_ctrl_state_change.isra.7+0x2c>)
     a0c:	1c05      	adds	r5, r0, #0
     a0e:	1c0c      	adds	r4, r1, #0
     a10:	4798      	blx	r3
     a12:	4b09      	ldr	r3, [pc, #36]	; (a38 <udi_cdc_ctrl_state_change.isra.7+0x30>)
     a14:	2d00      	cmp	r5, #0
     a16:	d003      	beq.n	a20 <udi_cdc_ctrl_state_change.isra.7+0x18>
     a18:	8819      	ldrh	r1, [r3, #0]
     a1a:	4321      	orrs	r1, r4
     a1c:	8019      	strh	r1, [r3, #0]
     a1e:	e002      	b.n	a26 <udi_cdc_ctrl_state_change.isra.7+0x1e>
     a20:	881a      	ldrh	r2, [r3, #0]
     a22:	43a2      	bics	r2, r4
     a24:	801a      	strh	r2, [r3, #0]
     a26:	4b05      	ldr	r3, [pc, #20]	; (a3c <udi_cdc_ctrl_state_change.isra.7+0x34>)
     a28:	4798      	blx	r3
     a2a:	2083      	movs	r0, #131	; 0x83
     a2c:	4b04      	ldr	r3, [pc, #16]	; (a40 <udi_cdc_ctrl_state_change.isra.7+0x38>)
     a2e:	4798      	blx	r3
     a30:	bd38      	pop	{r3, r4, r5, pc}
     a32:	46c0      	nop			; (mov r8, r8)
     a34:	00000745 	.word	0x00000745
     a38:	20000636 	.word	0x20000636
     a3c:	000007bd 	.word	0x000007bd
     a40:	00000999 	.word	0x00000999

00000a44 <udi_cdc_comm_setup>:
     a44:	2260      	movs	r2, #96	; 0x60
     a46:	b510      	push	{r4, lr}
     a48:	4b14      	ldr	r3, [pc, #80]	; (a9c <udi_cdc_comm_setup+0x58>)
     a4a:	7819      	ldrb	r1, [r3, #0]
     a4c:	b248      	sxtb	r0, r1
     a4e:	400a      	ands	r2, r1
     a50:	2800      	cmp	r0, #0
     a52:	da09      	bge.n	a68 <udi_cdc_comm_setup+0x24>
     a54:	2000      	movs	r0, #0
     a56:	2a20      	cmp	r2, #32
     a58:	d11e      	bne.n	a98 <udi_cdc_comm_setup+0x54>
     a5a:	785a      	ldrb	r2, [r3, #1]
     a5c:	2a21      	cmp	r2, #33	; 0x21
     a5e:	d11b      	bne.n	a98 <udi_cdc_comm_setup+0x54>
     a60:	88da      	ldrh	r2, [r3, #6]
     a62:	2a07      	cmp	r2, #7
     a64:	d118      	bne.n	a98 <udi_cdc_comm_setup+0x54>
     a66:	e013      	b.n	a90 <udi_cdc_comm_setup+0x4c>
     a68:	2000      	movs	r0, #0
     a6a:	2a20      	cmp	r2, #32
     a6c:	d114      	bne.n	a98 <udi_cdc_comm_setup+0x54>
     a6e:	785a      	ldrb	r2, [r3, #1]
     a70:	2a20      	cmp	r2, #32
     a72:	d008      	beq.n	a86 <udi_cdc_comm_setup+0x42>
     a74:	2a22      	cmp	r2, #34	; 0x22
     a76:	d10f      	bne.n	a98 <udi_cdc_comm_setup+0x54>
     a78:	2401      	movs	r4, #1
     a7a:	8859      	ldrh	r1, [r3, #2]
     a7c:	4b08      	ldr	r3, [pc, #32]	; (aa0 <udi_cdc_comm_setup+0x5c>)
     a7e:	4021      	ands	r1, r4
     a80:	4798      	blx	r3
     a82:	1c20      	adds	r0, r4, #0
     a84:	e008      	b.n	a98 <udi_cdc_comm_setup+0x54>
     a86:	88da      	ldrh	r2, [r3, #6]
     a88:	2a07      	cmp	r2, #7
     a8a:	d105      	bne.n	a98 <udi_cdc_comm_setup+0x54>
     a8c:	4905      	ldr	r1, [pc, #20]	; (aa4 <udi_cdc_comm_setup+0x60>)
     a8e:	6119      	str	r1, [r3, #16]
     a90:	2001      	movs	r0, #1
     a92:	4905      	ldr	r1, [pc, #20]	; (aa8 <udi_cdc_comm_setup+0x64>)
     a94:	819a      	strh	r2, [r3, #12]
     a96:	6099      	str	r1, [r3, #8]
     a98:	bd10      	pop	{r4, pc}
     a9a:	46c0      	nop			; (mov r8, r8)
     a9c:	200009c8 	.word	0x200009c8
     aa0:	00003f2d 	.word	0x00003f2d
     aa4:	00000781 	.word	0x00000781
     aa8:	20000108 	.word	0x20000108

00000aac <udi_cdc_signal_overrun>:
     aac:	b508      	push	{r3, lr}
     aae:	2001      	movs	r0, #1
     ab0:	2140      	movs	r1, #64	; 0x40
     ab2:	4b01      	ldr	r3, [pc, #4]	; (ab8 <udi_cdc_signal_overrun+0xc>)
     ab4:	4798      	blx	r3
     ab6:	bd08      	pop	{r3, pc}
     ab8:	00000a09 	.word	0x00000a09

00000abc <udi_cdc_multi_get_nb_received_data>:
     abc:	b538      	push	{r3, r4, r5, lr}
     abe:	4b07      	ldr	r3, [pc, #28]	; (adc <udi_cdc_multi_get_nb_received_data+0x20>)
     ac0:	4798      	blx	r3
     ac2:	4b07      	ldr	r3, [pc, #28]	; (ae0 <udi_cdc_multi_get_nb_received_data+0x24>)
     ac4:	4a07      	ldr	r2, [pc, #28]	; (ae4 <udi_cdc_multi_get_nb_received_data+0x28>)
     ac6:	881d      	ldrh	r5, [r3, #0]
     ac8:	4b07      	ldr	r3, [pc, #28]	; (ae8 <udi_cdc_multi_get_nb_received_data+0x2c>)
     aca:	b2ad      	uxth	r5, r5
     acc:	781b      	ldrb	r3, [r3, #0]
     ace:	005b      	lsls	r3, r3, #1
     ad0:	5a9b      	ldrh	r3, [r3, r2]
     ad2:	b29c      	uxth	r4, r3
     ad4:	4b05      	ldr	r3, [pc, #20]	; (aec <udi_cdc_multi_get_nb_received_data+0x30>)
     ad6:	4798      	blx	r3
     ad8:	1b60      	subs	r0, r4, r5
     ada:	bd38      	pop	{r3, r4, r5, pc}
     adc:	00000745 	.word	0x00000745
     ae0:	2000039e 	.word	0x2000039e
     ae4:	20000398 	.word	0x20000398
     ae8:	200003a3 	.word	0x200003a3
     aec:	000007bd 	.word	0x000007bd

00000af0 <udi_cdc_get_nb_received_data>:
     af0:	b508      	push	{r3, lr}
     af2:	2000      	movs	r0, #0
     af4:	4b01      	ldr	r3, [pc, #4]	; (afc <udi_cdc_get_nb_received_data+0xc>)
     af6:	4798      	blx	r3
     af8:	bd08      	pop	{r3, pc}
     afa:	46c0      	nop			; (mov r8, r8)
     afc:	00000abd 	.word	0x00000abd

00000b00 <udi_cdc_multi_is_rx_ready>:
     b00:	b508      	push	{r3, lr}
     b02:	4b03      	ldr	r3, [pc, #12]	; (b10 <udi_cdc_multi_is_rx_ready+0x10>)
     b04:	4798      	blx	r3
     b06:	1e43      	subs	r3, r0, #1
     b08:	4198      	sbcs	r0, r3
     b0a:	b2c0      	uxtb	r0, r0
     b0c:	bd08      	pop	{r3, pc}
     b0e:	46c0      	nop			; (mov r8, r8)
     b10:	00000abd 	.word	0x00000abd

00000b14 <udi_cdc_rx_start.isra.9>:
     b14:	b5f7      	push	{r0, r1, r2, r4, r5, r6, r7, lr}
     b16:	4b1b      	ldr	r3, [pc, #108]	; (b84 <udi_cdc_rx_start.isra.9+0x70>)
     b18:	4798      	blx	r3
     b1a:	491b      	ldr	r1, [pc, #108]	; (b88 <udi_cdc_rx_start.isra.9+0x74>)
     b1c:	4a1b      	ldr	r2, [pc, #108]	; (b8c <udi_cdc_rx_start.isra.9+0x78>)
     b1e:	780c      	ldrb	r4, [r1, #0]
     b20:	7815      	ldrb	r5, [r2, #0]
     b22:	b2e4      	uxtb	r4, r4
     b24:	b2ed      	uxtb	r5, r5
     b26:	2d00      	cmp	r5, #0
     b28:	d108      	bne.n	b3c <udi_cdc_rx_start.isra.9+0x28>
     b2a:	0066      	lsls	r6, r4, #1
     b2c:	46b4      	mov	ip, r6
     b2e:	4b18      	ldr	r3, [pc, #96]	; (b90 <udi_cdc_rx_start.isra.9+0x7c>)
     b30:	4e18      	ldr	r6, [pc, #96]	; (b94 <udi_cdc_rx_start.isra.9+0x80>)
     b32:	881f      	ldrh	r7, [r3, #0]
     b34:	4663      	mov	r3, ip
     b36:	5b9e      	ldrh	r6, [r3, r6]
     b38:	42b7      	cmp	r7, r6
     b3a:	d203      	bcs.n	b44 <udi_cdc_rx_start.isra.9+0x30>
     b3c:	4b16      	ldr	r3, [pc, #88]	; (b98 <udi_cdc_rx_start.isra.9+0x84>)
     b3e:	4798      	blx	r3
     b40:	2000      	movs	r0, #0
     b42:	e01e      	b.n	b82 <udi_cdc_rx_start.isra.9+0x6e>
     b44:	4b12      	ldr	r3, [pc, #72]	; (b90 <udi_cdc_rx_start.isra.9+0x7c>)
     b46:	801d      	strh	r5, [r3, #0]
     b48:	4263      	negs	r3, r4
     b4a:	4163      	adcs	r3, r4
     b4c:	b2db      	uxtb	r3, r3
     b4e:	700b      	strb	r3, [r1, #0]
     b50:	2301      	movs	r3, #1
     b52:	7013      	strb	r3, [r2, #0]
     b54:	4b10      	ldr	r3, [pc, #64]	; (b98 <udi_cdc_rx_start.isra.9+0x84>)
     b56:	4798      	blx	r3
     b58:	1c28      	adds	r0, r5, #0
     b5a:	4b10      	ldr	r3, [pc, #64]	; (b9c <udi_cdc_rx_start.isra.9+0x88>)
     b5c:	4798      	blx	r3
     b5e:	2800      	cmp	r0, #0
     b60:	d002      	beq.n	b68 <udi_cdc_rx_start.isra.9+0x54>
     b62:	1c28      	adds	r0, r5, #0
     b64:	4b0e      	ldr	r3, [pc, #56]	; (ba0 <udi_cdc_rx_start.isra.9+0x8c>)
     b66:	4798      	blx	r3
     b68:	4b0e      	ldr	r3, [pc, #56]	; (ba4 <udi_cdc_rx_start.isra.9+0x90>)
     b6a:	01a2      	lsls	r2, r4, #6
     b6c:	9300      	str	r3, [sp, #0]
     b6e:	23a0      	movs	r3, #160	; 0xa0
     b70:	0224      	lsls	r4, r4, #8
     b72:	1914      	adds	r4, r2, r4
     b74:	4a0c      	ldr	r2, [pc, #48]	; (ba8 <udi_cdc_rx_start.isra.9+0x94>)
     b76:	2002      	movs	r0, #2
     b78:	1912      	adds	r2, r2, r4
     b7a:	2101      	movs	r1, #1
     b7c:	005b      	lsls	r3, r3, #1
     b7e:	4c0b      	ldr	r4, [pc, #44]	; (bac <udi_cdc_rx_start.isra.9+0x98>)
     b80:	47a0      	blx	r4
     b82:	bdfe      	pop	{r1, r2, r3, r4, r5, r6, r7, pc}
     b84:	00000745 	.word	0x00000745
     b88:	200003a3 	.word	0x200003a3
     b8c:	20000634 	.word	0x20000634
     b90:	2000039e 	.word	0x2000039e
     b94:	20000398 	.word	0x20000398
     b98:	000007bd 	.word	0x000007bd
     b9c:	00000b01 	.word	0x00000b01
     ba0:	000040c1 	.word	0x000040c1
     ba4:	00000c39 	.word	0x00000c39
     ba8:	200003b4 	.word	0x200003b4
     bac:	00002f39 	.word	0x00002f39

00000bb0 <udi_cdc_data_enable>:
     bb0:	b538      	push	{r3, r4, r5, lr}
     bb2:	2400      	movs	r4, #0
     bb4:	4b13      	ldr	r3, [pc, #76]	; (c04 <udi_cdc_data_enable+0x54>)
     bb6:	4d14      	ldr	r5, [pc, #80]	; (c08 <udi_cdc_data_enable+0x58>)
     bb8:	702c      	strb	r4, [r5, #0]
     bba:	701c      	strb	r4, [r3, #0]
     bbc:	4b13      	ldr	r3, [pc, #76]	; (c0c <udi_cdc_data_enable+0x5c>)
     bbe:	701c      	strb	r4, [r3, #0]
     bc0:	4b13      	ldr	r3, [pc, #76]	; (c10 <udi_cdc_data_enable+0x60>)
     bc2:	701c      	strb	r4, [r3, #0]
     bc4:	4b13      	ldr	r3, [pc, #76]	; (c14 <udi_cdc_data_enable+0x64>)
     bc6:	801c      	strh	r4, [r3, #0]
     bc8:	805c      	strh	r4, [r3, #2]
     bca:	4b13      	ldr	r3, [pc, #76]	; (c18 <udi_cdc_data_enable+0x68>)
     bcc:	801c      	strh	r4, [r3, #0]
     bce:	4b13      	ldr	r3, [pc, #76]	; (c1c <udi_cdc_data_enable+0x6c>)
     bd0:	4798      	blx	r3
     bd2:	4b13      	ldr	r3, [pc, #76]	; (c20 <udi_cdc_data_enable+0x70>)
     bd4:	701c      	strb	r4, [r3, #0]
     bd6:	4b13      	ldr	r3, [pc, #76]	; (c24 <udi_cdc_data_enable+0x74>)
     bd8:	701c      	strb	r4, [r3, #0]
     bda:	4b13      	ldr	r3, [pc, #76]	; (c28 <udi_cdc_data_enable+0x78>)
     bdc:	801c      	strh	r4, [r3, #0]
     bde:	805c      	strh	r4, [r3, #2]
     be0:	4b12      	ldr	r3, [pc, #72]	; (c2c <udi_cdc_data_enable+0x7c>)
     be2:	801c      	strh	r4, [r3, #0]
     be4:	4b12      	ldr	r3, [pc, #72]	; (c30 <udi_cdc_data_enable+0x80>)
     be6:	4798      	blx	r3
     be8:	42a0      	cmp	r0, r4
     bea:	d009      	beq.n	c00 <udi_cdc_data_enable+0x50>
     bec:	782b      	ldrb	r3, [r5, #0]
     bee:	3301      	adds	r3, #1
     bf0:	b2db      	uxtb	r3, r3
     bf2:	702b      	strb	r3, [r5, #0]
     bf4:	782b      	ldrb	r3, [r5, #0]
     bf6:	b2db      	uxtb	r3, r3
     bf8:	2b01      	cmp	r3, #1
     bfa:	d101      	bne.n	c00 <udi_cdc_data_enable+0x50>
     bfc:	4a0d      	ldr	r2, [pc, #52]	; (c34 <udi_cdc_data_enable+0x84>)
     bfe:	7013      	strb	r3, [r2, #0]
     c00:	bd38      	pop	{r3, r4, r5, pc}
     c02:	46c0      	nop			; (mov r8, r8)
     c04:	200003a4 	.word	0x200003a4
     c08:	2000010f 	.word	0x2000010f
     c0c:	20000635 	.word	0x20000635
     c10:	20000110 	.word	0x20000110
     c14:	20000114 	.word	0x20000114
     c18:	200003a0 	.word	0x200003a0
     c1c:	00000839 	.word	0x00000839
     c20:	20000634 	.word	0x20000634
     c24:	200003a3 	.word	0x200003a3
     c28:	20000398 	.word	0x20000398
     c2c:	2000039e 	.word	0x2000039e
     c30:	00000b15 	.word	0x00000b15
     c34:	200003a2 	.word	0x200003a2

00000c38 <udi_cdc_data_received>:
     c38:	b513      	push	{r0, r1, r4, lr}
     c3a:	2800      	cmp	r0, #0
     c3c:	d11d      	bne.n	c7a <udi_cdc_data_received+0x42>
     c3e:	4b0f      	ldr	r3, [pc, #60]	; (c7c <udi_cdc_data_received+0x44>)
     c40:	781b      	ldrb	r3, [r3, #0]
     c42:	425c      	negs	r4, r3
     c44:	4163      	adcs	r3, r4
     c46:	b2db      	uxtb	r3, r3
     c48:	2900      	cmp	r1, #0
     c4a:	d10e      	bne.n	c6a <udi_cdc_data_received+0x32>
     c4c:	0199      	lsls	r1, r3, #6
     c4e:	021b      	lsls	r3, r3, #8
     c50:	18cb      	adds	r3, r1, r3
     c52:	490b      	ldr	r1, [pc, #44]	; (c80 <udi_cdc_data_received+0x48>)
     c54:	1c10      	adds	r0, r2, #0
     c56:	18cb      	adds	r3, r1, r3
     c58:	1c1a      	adds	r2, r3, #0
     c5a:	23a0      	movs	r3, #160	; 0xa0
     c5c:	4909      	ldr	r1, [pc, #36]	; (c84 <udi_cdc_data_received+0x4c>)
     c5e:	005b      	lsls	r3, r3, #1
     c60:	9100      	str	r1, [sp, #0]
     c62:	4c09      	ldr	r4, [pc, #36]	; (c88 <udi_cdc_data_received+0x50>)
     c64:	2101      	movs	r1, #1
     c66:	47a0      	blx	r4
     c68:	e007      	b.n	c7a <udi_cdc_data_received+0x42>
     c6a:	4a08      	ldr	r2, [pc, #32]	; (c8c <udi_cdc_data_received+0x54>)
     c6c:	005b      	lsls	r3, r3, #1
     c6e:	b289      	uxth	r1, r1
     c70:	5299      	strh	r1, [r3, r2]
     c72:	4b07      	ldr	r3, [pc, #28]	; (c90 <udi_cdc_data_received+0x58>)
     c74:	7018      	strb	r0, [r3, #0]
     c76:	4b07      	ldr	r3, [pc, #28]	; (c94 <udi_cdc_data_received+0x5c>)
     c78:	4798      	blx	r3
     c7a:	bd13      	pop	{r0, r1, r4, pc}
     c7c:	200003a3 	.word	0x200003a3
     c80:	200003b4 	.word	0x200003b4
     c84:	00000c39 	.word	0x00000c39
     c88:	00002f39 	.word	0x00002f39
     c8c:	20000398 	.word	0x20000398
     c90:	20000634 	.word	0x20000634
     c94:	00000b15 	.word	0x00000b15

00000c98 <udi_cdc_is_rx_ready>:
     c98:	b508      	push	{r3, lr}
     c9a:	2000      	movs	r0, #0
     c9c:	4b01      	ldr	r3, [pc, #4]	; (ca4 <udi_cdc_is_rx_ready+0xc>)
     c9e:	4798      	blx	r3
     ca0:	bd08      	pop	{r3, pc}
     ca2:	46c0      	nop			; (mov r8, r8)
     ca4:	00000b01 	.word	0x00000b01

00000ca8 <udi_cdc_multi_read_buf>:
     ca8:	b5f7      	push	{r0, r1, r2, r4, r5, r6, r7, lr}
     caa:	1c0f      	adds	r7, r1, #0
     cac:	1c15      	adds	r5, r2, #0
     cae:	4b1d      	ldr	r3, [pc, #116]	; (d24 <udi_cdc_multi_read_buf+0x7c>)
     cb0:	4798      	blx	r3
     cb2:	4b1d      	ldr	r3, [pc, #116]	; (d28 <udi_cdc_multi_read_buf+0x80>)
     cb4:	8819      	ldrh	r1, [r3, #0]
     cb6:	b28b      	uxth	r3, r1
     cb8:	9300      	str	r3, [sp, #0]
     cba:	4b1c      	ldr	r3, [pc, #112]	; (d2c <udi_cdc_multi_read_buf+0x84>)
     cbc:	781c      	ldrb	r4, [r3, #0]
     cbe:	4b1c      	ldr	r3, [pc, #112]	; (d30 <udi_cdc_multi_read_buf+0x88>)
     cc0:	b2e4      	uxtb	r4, r4
     cc2:	0066      	lsls	r6, r4, #1
     cc4:	5af3      	ldrh	r3, [r6, r3]
     cc6:	b29b      	uxth	r3, r3
     cc8:	9301      	str	r3, [sp, #4]
     cca:	4b1a      	ldr	r3, [pc, #104]	; (d34 <udi_cdc_multi_read_buf+0x8c>)
     ccc:	4798      	blx	r3
     cce:	9b00      	ldr	r3, [sp, #0]
     cd0:	9a01      	ldr	r2, [sp, #4]
     cd2:	4293      	cmp	r3, r2
     cd4:	d304      	bcc.n	ce0 <udi_cdc_multi_read_buf+0x38>
     cd6:	4b18      	ldr	r3, [pc, #96]	; (d38 <udi_cdc_multi_read_buf+0x90>)
     cd8:	781b      	ldrb	r3, [r3, #0]
     cda:	2b00      	cmp	r3, #0
     cdc:	d1e7      	bne.n	cae <udi_cdc_multi_read_buf+0x6>
     cde:	e01e      	b.n	d1e <udi_cdc_multi_read_buf+0x76>
     ce0:	4b13      	ldr	r3, [pc, #76]	; (d30 <udi_cdc_multi_read_buf+0x88>)
     ce2:	9a00      	ldr	r2, [sp, #0]
     ce4:	5af3      	ldrh	r3, [r6, r3]
     ce6:	1c2e      	adds	r6, r5, #0
     ce8:	1a9b      	subs	r3, r3, r2
     cea:	429d      	cmp	r5, r3
     cec:	d900      	bls.n	cf0 <udi_cdc_multi_read_buf+0x48>
     cee:	1c1e      	adds	r6, r3, #0
     cf0:	9b00      	ldr	r3, [sp, #0]
     cf2:	01a1      	lsls	r1, r4, #6
     cf4:	0224      	lsls	r4, r4, #8
     cf6:	1909      	adds	r1, r1, r4
     cf8:	185c      	adds	r4, r3, r1
     cfa:	4910      	ldr	r1, [pc, #64]	; (d3c <udi_cdc_multi_read_buf+0x94>)
     cfc:	1c38      	adds	r0, r7, #0
     cfe:	1c32      	adds	r2, r6, #0
     d00:	4b0f      	ldr	r3, [pc, #60]	; (d40 <udi_cdc_multi_read_buf+0x98>)
     d02:	1909      	adds	r1, r1, r4
     d04:	4798      	blx	r3
     d06:	4b08      	ldr	r3, [pc, #32]	; (d28 <udi_cdc_multi_read_buf+0x80>)
     d08:	4a07      	ldr	r2, [pc, #28]	; (d28 <udi_cdc_multi_read_buf+0x80>)
     d0a:	881b      	ldrh	r3, [r3, #0]
     d0c:	1bad      	subs	r5, r5, r6
     d0e:	199b      	adds	r3, r3, r6
     d10:	b29b      	uxth	r3, r3
     d12:	8013      	strh	r3, [r2, #0]
     d14:	4b0b      	ldr	r3, [pc, #44]	; (d44 <udi_cdc_multi_read_buf+0x9c>)
     d16:	19bf      	adds	r7, r7, r6
     d18:	4798      	blx	r3
     d1a:	2d00      	cmp	r5, #0
     d1c:	d1c7      	bne.n	cae <udi_cdc_multi_read_buf+0x6>
     d1e:	1c28      	adds	r0, r5, #0
     d20:	bdfe      	pop	{r1, r2, r3, r4, r5, r6, r7, pc}
     d22:	46c0      	nop			; (mov r8, r8)
     d24:	00000745 	.word	0x00000745
     d28:	2000039e 	.word	0x2000039e
     d2c:	200003a3 	.word	0x200003a3
     d30:	20000398 	.word	0x20000398
     d34:	000007bd 	.word	0x000007bd
     d38:	200003a2 	.word	0x200003a2
     d3c:	200003b4 	.word	0x200003b4
     d40:	0000466d 	.word	0x0000466d
     d44:	00000b15 	.word	0x00000b15

00000d48 <udi_cdc_read_buf>:
     d48:	b508      	push	{r3, lr}
     d4a:	1c03      	adds	r3, r0, #0
     d4c:	1c0a      	adds	r2, r1, #0
     d4e:	2000      	movs	r0, #0
     d50:	1c19      	adds	r1, r3, #0
     d52:	4b01      	ldr	r3, [pc, #4]	; (d58 <udi_cdc_read_buf+0x10>)
     d54:	4798      	blx	r3
     d56:	bd08      	pop	{r3, pc}
     d58:	00000ca9 	.word	0x00000ca9

00000d5c <udi_cdc_multi_get_free_tx_buffer>:
     d5c:	b538      	push	{r3, r4, r5, lr}
     d5e:	4b11      	ldr	r3, [pc, #68]	; (da4 <udi_cdc_multi_get_free_tx_buffer+0x48>)
     d60:	4798      	blx	r3
     d62:	4911      	ldr	r1, [pc, #68]	; (da8 <udi_cdc_multi_get_free_tx_buffer+0x4c>)
     d64:	4a11      	ldr	r2, [pc, #68]	; (dac <udi_cdc_multi_get_free_tx_buffer+0x50>)
     d66:	780b      	ldrb	r3, [r1, #0]
     d68:	b2db      	uxtb	r3, r3
     d6a:	005c      	lsls	r4, r3, #1
     d6c:	5aa4      	ldrh	r4, [r4, r2]
     d6e:	22a0      	movs	r2, #160	; 0xa0
     d70:	0052      	lsls	r2, r2, #1
     d72:	4294      	cmp	r4, r2
     d74:	d10f      	bne.n	d96 <udi_cdc_multi_get_free_tx_buffer+0x3a>
     d76:	4a0e      	ldr	r2, [pc, #56]	; (db0 <udi_cdc_multi_get_free_tx_buffer+0x54>)
     d78:	7812      	ldrb	r2, [r2, #0]
     d7a:	2a00      	cmp	r2, #0
     d7c:	d10b      	bne.n	d96 <udi_cdc_multi_get_free_tx_buffer+0x3a>
     d7e:	4d0d      	ldr	r5, [pc, #52]	; (db4 <udi_cdc_multi_get_free_tx_buffer+0x58>)
     d80:	782a      	ldrb	r2, [r5, #0]
     d82:	b2d2      	uxtb	r2, r2
     d84:	2a00      	cmp	r2, #0
     d86:	d106      	bne.n	d96 <udi_cdc_multi_get_free_tx_buffer+0x3a>
     d88:	2401      	movs	r4, #1
     d8a:	702c      	strb	r4, [r5, #0]
     d8c:	425c      	negs	r4, r3
     d8e:	4163      	adcs	r3, r4
     d90:	1c14      	adds	r4, r2, #0
     d92:	b2db      	uxtb	r3, r3
     d94:	700b      	strb	r3, [r1, #0]
     d96:	4b08      	ldr	r3, [pc, #32]	; (db8 <udi_cdc_multi_get_free_tx_buffer+0x5c>)
     d98:	4798      	blx	r3
     d9a:	20a0      	movs	r0, #160	; 0xa0
     d9c:	0040      	lsls	r0, r0, #1
     d9e:	1b00      	subs	r0, r0, r4
     da0:	bd38      	pop	{r3, r4, r5, pc}
     da2:	46c0      	nop			; (mov r8, r8)
     da4:	00000745 	.word	0x00000745
     da8:	20000110 	.word	0x20000110
     dac:	20000114 	.word	0x20000114
     db0:	200003a4 	.word	0x200003a4
     db4:	20000635 	.word	0x20000635
     db8:	000007bd 	.word	0x000007bd

00000dbc <udi_cdc_multi_is_tx_ready>:
     dbc:	b508      	push	{r3, lr}
     dbe:	4b03      	ldr	r3, [pc, #12]	; (dcc <udi_cdc_multi_is_tx_ready+0x10>)
     dc0:	4798      	blx	r3
     dc2:	1e43      	subs	r3, r0, #1
     dc4:	4198      	sbcs	r0, r3
     dc6:	b2c0      	uxtb	r0, r0
     dc8:	bd08      	pop	{r3, pc}
     dca:	46c0      	nop			; (mov r8, r8)
     dcc:	00000d5d 	.word	0x00000d5d

00000dd0 <udi_cdc_is_tx_ready>:
     dd0:	b508      	push	{r3, lr}
     dd2:	2000      	movs	r0, #0
     dd4:	4b01      	ldr	r3, [pc, #4]	; (ddc <udi_cdc_is_tx_ready+0xc>)
     dd6:	4798      	blx	r3
     dd8:	bd08      	pop	{r3, pc}
     dda:	46c0      	nop			; (mov r8, r8)
     ddc:	00000dbd 	.word	0x00000dbd

00000de0 <udi_cdc_multi_putc>:
     de0:	b5f8      	push	{r3, r4, r5, r6, r7, lr}
     de2:	4b15      	ldr	r3, [pc, #84]	; (e38 <udi_cdc_multi_putc+0x58>)
     de4:	1c0d      	adds	r5, r1, #0
     de6:	799c      	ldrb	r4, [r3, #6]
     de8:	3c09      	subs	r4, #9
     dea:	4263      	negs	r3, r4
     dec:	415c      	adcs	r4, r3
     dee:	b2e4      	uxtb	r4, r4
     df0:	2000      	movs	r0, #0
     df2:	4b12      	ldr	r3, [pc, #72]	; (e3c <udi_cdc_multi_putc+0x5c>)
     df4:	4798      	blx	r3
     df6:	2800      	cmp	r0, #0
     df8:	d105      	bne.n	e06 <udi_cdc_multi_putc+0x26>
     dfa:	4b11      	ldr	r3, [pc, #68]	; (e40 <udi_cdc_multi_putc+0x60>)
     dfc:	7818      	ldrb	r0, [r3, #0]
     dfe:	b2c0      	uxtb	r0, r0
     e00:	2800      	cmp	r0, #0
     e02:	d1f5      	bne.n	df0 <udi_cdc_multi_putc+0x10>
     e04:	e017      	b.n	e36 <udi_cdc_multi_putc+0x56>
     e06:	4b0f      	ldr	r3, [pc, #60]	; (e44 <udi_cdc_multi_putc+0x64>)
     e08:	4798      	blx	r3
     e0a:	4b0f      	ldr	r3, [pc, #60]	; (e48 <udi_cdc_multi_putc+0x68>)
     e0c:	490f      	ldr	r1, [pc, #60]	; (e4c <udi_cdc_multi_putc+0x6c>)
     e0e:	781b      	ldrb	r3, [r3, #0]
     e10:	b2db      	uxtb	r3, r3
     e12:	005e      	lsls	r6, r3, #1
     e14:	5a72      	ldrh	r2, [r6, r1]
     e16:	1c57      	adds	r7, r2, #1
     e18:	5277      	strh	r7, [r6, r1]
     e1a:	0199      	lsls	r1, r3, #6
     e1c:	021b      	lsls	r3, r3, #8
     e1e:	18cb      	adds	r3, r1, r3
     e20:	189b      	adds	r3, r3, r2
     e22:	4a0b      	ldr	r2, [pc, #44]	; (e50 <udi_cdc_multi_putc+0x70>)
     e24:	549d      	strb	r5, [r3, r2]
     e26:	4b0b      	ldr	r3, [pc, #44]	; (e54 <udi_cdc_multi_putc+0x74>)
     e28:	4798      	blx	r3
     e2a:	2c00      	cmp	r4, #0
     e2c:	d002      	beq.n	e34 <udi_cdc_multi_putc+0x54>
     e2e:	122d      	asrs	r5, r5, #8
     e30:	2400      	movs	r4, #0
     e32:	e7dd      	b.n	df0 <udi_cdc_multi_putc+0x10>
     e34:	2001      	movs	r0, #1
     e36:	bdf8      	pop	{r3, r4, r5, r6, r7, pc}
     e38:	20000108 	.word	0x20000108
     e3c:	00000dbd 	.word	0x00000dbd
     e40:	200003a2 	.word	0x200003a2
     e44:	00000745 	.word	0x00000745
     e48:	20000110 	.word	0x20000110
     e4c:	20000114 	.word	0x20000114
     e50:	20000118 	.word	0x20000118
     e54:	000007bd 	.word	0x000007bd

00000e58 <udi_cdc_putc>:
     e58:	b508      	push	{r3, lr}
     e5a:	1c01      	adds	r1, r0, #0
     e5c:	4b01      	ldr	r3, [pc, #4]	; (e64 <udi_cdc_putc+0xc>)
     e5e:	2000      	movs	r0, #0
     e60:	4798      	blx	r3
     e62:	bd08      	pop	{r3, pc}
     e64:	00000de1 	.word	0x00000de1

00000e68 <udi_cdc_multi_write_buf>:
     e68:	b5f7      	push	{r0, r1, r2, r4, r5, r6, r7, lr}
     e6a:	4b1d      	ldr	r3, [pc, #116]	; (ee0 <udi_cdc_multi_write_buf+0x78>)
     e6c:	1c0f      	adds	r7, r1, #0
     e6e:	799b      	ldrb	r3, [r3, #6]
     e70:	1c14      	adds	r4, r2, #0
     e72:	2b09      	cmp	r3, #9
     e74:	d100      	bne.n	e78 <udi_cdc_multi_write_buf+0x10>
     e76:	0054      	lsls	r4, r2, #1
     e78:	2000      	movs	r0, #0
     e7a:	4b1a      	ldr	r3, [pc, #104]	; (ee4 <udi_cdc_multi_write_buf+0x7c>)
     e7c:	4798      	blx	r3
     e7e:	2800      	cmp	r0, #0
     e80:	d104      	bne.n	e8c <udi_cdc_multi_write_buf+0x24>
     e82:	4b19      	ldr	r3, [pc, #100]	; (ee8 <udi_cdc_multi_write_buf+0x80>)
     e84:	781b      	ldrb	r3, [r3, #0]
     e86:	2b00      	cmp	r3, #0
     e88:	d1f6      	bne.n	e78 <udi_cdc_multi_write_buf+0x10>
     e8a:	e027      	b.n	edc <udi_cdc_multi_write_buf+0x74>
     e8c:	4b17      	ldr	r3, [pc, #92]	; (eec <udi_cdc_multi_write_buf+0x84>)
     e8e:	4798      	blx	r3
     e90:	4b17      	ldr	r3, [pc, #92]	; (ef0 <udi_cdc_multi_write_buf+0x88>)
     e92:	9001      	str	r0, [sp, #4]
     e94:	781d      	ldrb	r5, [r3, #0]
     e96:	4b17      	ldr	r3, [pc, #92]	; (ef4 <udi_cdc_multi_write_buf+0x8c>)
     e98:	b2ed      	uxtb	r5, r5
     e9a:	006a      	lsls	r2, r5, #1
     e9c:	5ad3      	ldrh	r3, [r2, r3]
     e9e:	1c26      	adds	r6, r4, #0
     ea0:	9300      	str	r3, [sp, #0]
     ea2:	23a0      	movs	r3, #160	; 0xa0
     ea4:	9a00      	ldr	r2, [sp, #0]
     ea6:	005b      	lsls	r3, r3, #1
     ea8:	1a9b      	subs	r3, r3, r2
     eaa:	429c      	cmp	r4, r3
     eac:	d900      	bls.n	eb0 <udi_cdc_multi_write_buf+0x48>
     eae:	1c1e      	adds	r6, r3, #0
     eb0:	022b      	lsls	r3, r5, #8
     eb2:	01a8      	lsls	r0, r5, #6
     eb4:	18c0      	adds	r0, r0, r3
     eb6:	9b00      	ldr	r3, [sp, #0]
     eb8:	1c39      	adds	r1, r7, #0
     eba:	1818      	adds	r0, r3, r0
     ebc:	4b0e      	ldr	r3, [pc, #56]	; (ef8 <udi_cdc_multi_write_buf+0x90>)
     ebe:	1c32      	adds	r2, r6, #0
     ec0:	1818      	adds	r0, r3, r0
     ec2:	4b0e      	ldr	r3, [pc, #56]	; (efc <udi_cdc_multi_write_buf+0x94>)
     ec4:	4798      	blx	r3
     ec6:	9b00      	ldr	r3, [sp, #0]
     ec8:	4a0a      	ldr	r2, [pc, #40]	; (ef4 <udi_cdc_multi_write_buf+0x8c>)
     eca:	199b      	adds	r3, r3, r6
     ecc:	006d      	lsls	r5, r5, #1
     ece:	52ab      	strh	r3, [r5, r2]
     ed0:	9801      	ldr	r0, [sp, #4]
     ed2:	4b0b      	ldr	r3, [pc, #44]	; (f00 <udi_cdc_multi_write_buf+0x98>)
     ed4:	4798      	blx	r3
     ed6:	19bf      	adds	r7, r7, r6
     ed8:	1ba4      	subs	r4, r4, r6
     eda:	d1cd      	bne.n	e78 <udi_cdc_multi_write_buf+0x10>
     edc:	1c20      	adds	r0, r4, #0
     ede:	bdfe      	pop	{r1, r2, r3, r4, r5, r6, r7, pc}
     ee0:	20000108 	.word	0x20000108
     ee4:	00000dbd 	.word	0x00000dbd
     ee8:	200003a2 	.word	0x200003a2
     eec:	00000745 	.word	0x00000745
     ef0:	20000110 	.word	0x20000110
     ef4:	20000114 	.word	0x20000114
     ef8:	20000118 	.word	0x20000118
     efc:	0000466d 	.word	0x0000466d
     f00:	000007bd 	.word	0x000007bd

00000f04 <udi_cdc_write_buf>:
     f04:	b508      	push	{r3, lr}
     f06:	1c03      	adds	r3, r0, #0
     f08:	1c0a      	adds	r2, r1, #0
     f0a:	2000      	movs	r0, #0
     f0c:	1c19      	adds	r1, r3, #0
     f0e:	4b01      	ldr	r3, [pc, #4]	; (f14 <udi_cdc_write_buf+0x10>)
     f10:	4798      	blx	r3
     f12:	bd08      	pop	{r3, pc}
     f14:	00000e69 	.word	0x00000e69

00000f18 <udc_valid_address>:
     f18:	b508      	push	{r3, lr}
     f1a:	4b03      	ldr	r3, [pc, #12]	; (f28 <udc_valid_address+0x10>)
     f1c:	8858      	ldrh	r0, [r3, #2]
     f1e:	237f      	movs	r3, #127	; 0x7f
     f20:	4018      	ands	r0, r3
     f22:	4b02      	ldr	r3, [pc, #8]	; (f2c <udc_valid_address+0x14>)
     f24:	4798      	blx	r3
     f26:	bd08      	pop	{r3, pc}
     f28:	200009c8 	.word	0x200009c8
     f2c:	000030ad 	.word	0x000030ad

00000f30 <udc_update_iface_desc>:
     f30:	b530      	push	{r4, r5, lr}
     f32:	4b13      	ldr	r3, [pc, #76]	; (f80 <udc_update_iface_desc+0x50>)
     f34:	781b      	ldrb	r3, [r3, #0]
     f36:	2b00      	cmp	r3, #0
     f38:	d101      	bne.n	f3e <udc_update_iface_desc+0xe>
     f3a:	2000      	movs	r0, #0
     f3c:	e01f      	b.n	f7e <udc_update_iface_desc+0x4e>
     f3e:	4b11      	ldr	r3, [pc, #68]	; (f84 <udc_update_iface_desc+0x54>)
     f40:	681b      	ldr	r3, [r3, #0]
     f42:	681b      	ldr	r3, [r3, #0]
     f44:	791a      	ldrb	r2, [r3, #4]
     f46:	4282      	cmp	r2, r0
     f48:	d9f7      	bls.n	f3a <udc_update_iface_desc+0xa>
     f4a:	4a0f      	ldr	r2, [pc, #60]	; (f88 <udc_update_iface_desc+0x58>)
     f4c:	6013      	str	r3, [r2, #0]
     f4e:	78dc      	ldrb	r4, [r3, #3]
     f50:	789d      	ldrb	r5, [r3, #2]
     f52:	0224      	lsls	r4, r4, #8
     f54:	432c      	orrs	r4, r5
     f56:	191c      	adds	r4, r3, r4
     f58:	429c      	cmp	r4, r3
     f5a:	d90e      	bls.n	f7a <udc_update_iface_desc+0x4a>
     f5c:	785d      	ldrb	r5, [r3, #1]
     f5e:	2d04      	cmp	r5, #4
     f60:	d108      	bne.n	f74 <udc_update_iface_desc+0x44>
     f62:	789d      	ldrb	r5, [r3, #2]
     f64:	4285      	cmp	r5, r0
     f66:	d105      	bne.n	f74 <udc_update_iface_desc+0x44>
     f68:	78dd      	ldrb	r5, [r3, #3]
     f6a:	428d      	cmp	r5, r1
     f6c:	d102      	bne.n	f74 <udc_update_iface_desc+0x44>
     f6e:	6013      	str	r3, [r2, #0]
     f70:	2001      	movs	r0, #1
     f72:	e004      	b.n	f7e <udc_update_iface_desc+0x4e>
     f74:	781d      	ldrb	r5, [r3, #0]
     f76:	195b      	adds	r3, r3, r5
     f78:	e7ee      	b.n	f58 <udc_update_iface_desc+0x28>
     f7a:	6013      	str	r3, [r2, #0]
     f7c:	e7dd      	b.n	f3a <udc_update_iface_desc+0xa>
     f7e:	bd30      	pop	{r4, r5, pc}
     f80:	20000644 	.word	0x20000644
     f84:	2000063c 	.word	0x2000063c
     f88:	20000648 	.word	0x20000648

00000f8c <udc_next_desc_in_iface.constprop.3>:
     f8c:	4b09      	ldr	r3, [pc, #36]	; (fb4 <udc_next_desc_in_iface.constprop.3+0x28>)
     f8e:	681b      	ldr	r3, [r3, #0]
     f90:	6819      	ldr	r1, [r3, #0]
     f92:	78ca      	ldrb	r2, [r1, #3]
     f94:	788b      	ldrb	r3, [r1, #2]
     f96:	0212      	lsls	r2, r2, #8
     f98:	431a      	orrs	r2, r3
     f9a:	188a      	adds	r2, r1, r2
     f9c:	7803      	ldrb	r3, [r0, #0]
     f9e:	18c0      	adds	r0, r0, r3
     fa0:	4282      	cmp	r2, r0
     fa2:	d905      	bls.n	fb0 <udc_next_desc_in_iface.constprop.3+0x24>
     fa4:	7843      	ldrb	r3, [r0, #1]
     fa6:	2b04      	cmp	r3, #4
     fa8:	d002      	beq.n	fb0 <udc_next_desc_in_iface.constprop.3+0x24>
     faa:	2b05      	cmp	r3, #5
     fac:	d1f6      	bne.n	f9c <udc_next_desc_in_iface.constprop.3+0x10>
     fae:	e000      	b.n	fb2 <udc_next_desc_in_iface.constprop.3+0x26>
     fb0:	2000      	movs	r0, #0
     fb2:	4770      	bx	lr
     fb4:	2000063c 	.word	0x2000063c

00000fb8 <udc_iface_enable>:
     fb8:	b538      	push	{r3, r4, r5, lr}
     fba:	4b10      	ldr	r3, [pc, #64]	; (ffc <udc_iface_enable+0x44>)
     fbc:	1c05      	adds	r5, r0, #0
     fbe:	4798      	blx	r3
     fc0:	2800      	cmp	r0, #0
     fc2:	d101      	bne.n	fc8 <udc_iface_enable+0x10>
     fc4:	2000      	movs	r0, #0
     fc6:	e018      	b.n	ffa <udc_iface_enable+0x42>
     fc8:	4b0d      	ldr	r3, [pc, #52]	; (1000 <udc_iface_enable+0x48>)
     fca:	681c      	ldr	r4, [r3, #0]
     fcc:	1c20      	adds	r0, r4, #0
     fce:	4b0d      	ldr	r3, [pc, #52]	; (1004 <udc_iface_enable+0x4c>)
     fd0:	4798      	blx	r3
     fd2:	1e04      	subs	r4, r0, #0
     fd4:	d00a      	beq.n	fec <udc_iface_enable+0x34>
     fd6:	7962      	ldrb	r2, [r4, #5]
     fd8:	7923      	ldrb	r3, [r4, #4]
     fda:	0212      	lsls	r2, r2, #8
     fdc:	431a      	orrs	r2, r3
     fde:	7880      	ldrb	r0, [r0, #2]
     fe0:	78e1      	ldrb	r1, [r4, #3]
     fe2:	4b09      	ldr	r3, [pc, #36]	; (1008 <udc_iface_enable+0x50>)
     fe4:	4798      	blx	r3
     fe6:	2800      	cmp	r0, #0
     fe8:	d1f0      	bne.n	fcc <udc_iface_enable+0x14>
     fea:	e7eb      	b.n	fc4 <udc_iface_enable+0xc>
     fec:	4b07      	ldr	r3, [pc, #28]	; (100c <udc_iface_enable+0x54>)
     fee:	00ad      	lsls	r5, r5, #2
     ff0:	681b      	ldr	r3, [r3, #0]
     ff2:	685b      	ldr	r3, [r3, #4]
     ff4:	58eb      	ldr	r3, [r5, r3]
     ff6:	681b      	ldr	r3, [r3, #0]
     ff8:	4798      	blx	r3
     ffa:	bd38      	pop	{r3, r4, r5, pc}
     ffc:	00000f31 	.word	0x00000f31
    1000:	20000648 	.word	0x20000648
    1004:	00000f8d 	.word	0x00000f8d
    1008:	00002d15 	.word	0x00002d15
    100c:	2000063c 	.word	0x2000063c

00001010 <udc_iface_disable>:
    1010:	b570      	push	{r4, r5, r6, lr}
    1012:	2100      	movs	r1, #0
    1014:	4d10      	ldr	r5, [pc, #64]	; (1058 <udc_iface_disable+0x48>)
    1016:	1c04      	adds	r4, r0, #0
    1018:	47a8      	blx	r5
    101a:	2800      	cmp	r0, #0
    101c:	d101      	bne.n	1022 <udc_iface_disable+0x12>
    101e:	2500      	movs	r5, #0
    1020:	e018      	b.n	1054 <udc_iface_disable+0x44>
    1022:	4b0e      	ldr	r3, [pc, #56]	; (105c <udc_iface_disable+0x4c>)
    1024:	00a2      	lsls	r2, r4, #2
    1026:	681b      	ldr	r3, [r3, #0]
    1028:	685b      	ldr	r3, [r3, #4]
    102a:	58d6      	ldr	r6, [r2, r3]
    102c:	68f3      	ldr	r3, [r6, #12]
    102e:	4798      	blx	r3
    1030:	1c01      	adds	r1, r0, #0
    1032:	1c20      	adds	r0, r4, #0
    1034:	47a8      	blx	r5
    1036:	1e05      	subs	r5, r0, #0
    1038:	d0f1      	beq.n	101e <udc_iface_disable+0xe>
    103a:	4b09      	ldr	r3, [pc, #36]	; (1060 <udc_iface_disable+0x50>)
    103c:	681c      	ldr	r4, [r3, #0]
    103e:	1c20      	adds	r0, r4, #0
    1040:	4b08      	ldr	r3, [pc, #32]	; (1064 <udc_iface_disable+0x54>)
    1042:	4798      	blx	r3
    1044:	1e04      	subs	r4, r0, #0
    1046:	d003      	beq.n	1050 <udc_iface_disable+0x40>
    1048:	7880      	ldrb	r0, [r0, #2]
    104a:	4b07      	ldr	r3, [pc, #28]	; (1068 <udc_iface_disable+0x58>)
    104c:	4798      	blx	r3
    104e:	e7f6      	b.n	103e <udc_iface_disable+0x2e>
    1050:	6873      	ldr	r3, [r6, #4]
    1052:	4798      	blx	r3
    1054:	1c28      	adds	r0, r5, #0
    1056:	bd70      	pop	{r4, r5, r6, pc}
    1058:	00000f31 	.word	0x00000f31
    105c:	2000063c 	.word	0x2000063c
    1060:	20000648 	.word	0x20000648
    1064:	00000f8d 	.word	0x00000f8d
    1068:	00002cc1 	.word	0x00002cc1

0000106c <udc_start>:
    106c:	b508      	push	{r3, lr}
    106e:	4b01      	ldr	r3, [pc, #4]	; (1074 <udc_start+0x8>)
    1070:	4798      	blx	r3
    1072:	bd08      	pop	{r3, pc}
    1074:	000031e9 	.word	0x000031e9

00001078 <udc_reset>:
    1078:	b538      	push	{r3, r4, r5, lr}
    107a:	2400      	movs	r4, #0
    107c:	4b0b      	ldr	r3, [pc, #44]	; (10ac <udc_reset+0x34>)
    107e:	781a      	ldrb	r2, [r3, #0]
    1080:	1c1d      	adds	r5, r3, #0
    1082:	42a2      	cmp	r2, r4
    1084:	d105      	bne.n	1092 <udc_reset+0x1a>
    1086:	2300      	movs	r3, #0
    1088:	2201      	movs	r2, #1
    108a:	702b      	strb	r3, [r5, #0]
    108c:	4b08      	ldr	r3, [pc, #32]	; (10b0 <udc_reset+0x38>)
    108e:	801a      	strh	r2, [r3, #0]
    1090:	bd38      	pop	{r3, r4, r5, pc}
    1092:	4b08      	ldr	r3, [pc, #32]	; (10b4 <udc_reset+0x3c>)
    1094:	681b      	ldr	r3, [r3, #0]
    1096:	681b      	ldr	r3, [r3, #0]
    1098:	791b      	ldrb	r3, [r3, #4]
    109a:	42a3      	cmp	r3, r4
    109c:	d9f3      	bls.n	1086 <udc_reset+0xe>
    109e:	1c20      	adds	r0, r4, #0
    10a0:	4b05      	ldr	r3, [pc, #20]	; (10b8 <udc_reset+0x40>)
    10a2:	3401      	adds	r4, #1
    10a4:	4798      	blx	r3
    10a6:	b2e4      	uxtb	r4, r4
    10a8:	e7f3      	b.n	1092 <udc_reset+0x1a>
    10aa:	46c0      	nop			; (mov r8, r8)
    10ac:	20000644 	.word	0x20000644
    10b0:	20000642 	.word	0x20000642
    10b4:	2000063c 	.word	0x2000063c
    10b8:	00001011 	.word	0x00001011

000010bc <udc_sof_notify>:
    10bc:	b510      	push	{r4, lr}
    10be:	2400      	movs	r4, #0
    10c0:	4b0a      	ldr	r3, [pc, #40]	; (10ec <udc_sof_notify+0x30>)
    10c2:	781b      	ldrb	r3, [r3, #0]
    10c4:	42a3      	cmp	r3, r4
    10c6:	d00f      	beq.n	10e8 <udc_sof_notify+0x2c>
    10c8:	4b09      	ldr	r3, [pc, #36]	; (10f0 <udc_sof_notify+0x34>)
    10ca:	681b      	ldr	r3, [r3, #0]
    10cc:	681a      	ldr	r2, [r3, #0]
    10ce:	7912      	ldrb	r2, [r2, #4]
    10d0:	42a2      	cmp	r2, r4
    10d2:	d909      	bls.n	10e8 <udc_sof_notify+0x2c>
    10d4:	685b      	ldr	r3, [r3, #4]
    10d6:	00a2      	lsls	r2, r4, #2
    10d8:	58d3      	ldr	r3, [r2, r3]
    10da:	691b      	ldr	r3, [r3, #16]
    10dc:	2b00      	cmp	r3, #0
    10de:	d000      	beq.n	10e2 <udc_sof_notify+0x26>
    10e0:	4798      	blx	r3
    10e2:	3401      	adds	r4, #1
    10e4:	b2e4      	uxtb	r4, r4
    10e6:	e7ef      	b.n	10c8 <udc_sof_notify+0xc>
    10e8:	bd10      	pop	{r4, pc}
    10ea:	46c0      	nop			; (mov r8, r8)
    10ec:	20000644 	.word	0x20000644
    10f0:	2000063c 	.word	0x2000063c

000010f4 <udc_process_setup>:
    10f4:	b5f8      	push	{r3, r4, r5, r6, r7, lr}
    10f6:	2300      	movs	r3, #0
    10f8:	4c9a      	ldr	r4, [pc, #616]	; (1364 <udc_process_setup+0x270>)
    10fa:	7822      	ldrb	r2, [r4, #0]
    10fc:	81a3      	strh	r3, [r4, #12]
    10fe:	b250      	sxtb	r0, r2
    1100:	6123      	str	r3, [r4, #16]
    1102:	6163      	str	r3, [r4, #20]
    1104:	4298      	cmp	r0, r3
    1106:	da03      	bge.n	1110 <udc_process_setup+0x1c>
    1108:	88e3      	ldrh	r3, [r4, #6]
    110a:	2b00      	cmp	r3, #0
    110c:	d100      	bne.n	1110 <udc_process_setup+0x1c>
    110e:	e1a9      	b.n	1464 <udc_process_setup+0x370>
    1110:	2160      	movs	r1, #96	; 0x60
    1112:	4011      	ands	r1, r2
    1114:	d000      	beq.n	1118 <udc_process_setup+0x24>
    1116:	e15d      	b.n	13d4 <udc_process_setup+0x2e0>
    1118:	231f      	movs	r3, #31
    111a:	2800      	cmp	r0, #0
    111c:	db00      	blt.n	1120 <udc_process_setup+0x2c>
    111e:	e0a6      	b.n	126e <udc_process_setup+0x17a>
    1120:	88e5      	ldrh	r5, [r4, #6]
    1122:	2d00      	cmp	r5, #0
    1124:	d100      	bne.n	1128 <udc_process_setup+0x34>
    1126:	e155      	b.n	13d4 <udc_process_setup+0x2e0>
    1128:	4013      	ands	r3, r2
    112a:	d169      	bne.n	1200 <udc_process_setup+0x10c>
    112c:	7863      	ldrb	r3, [r4, #1]
    112e:	2b06      	cmp	r3, #6
    1130:	d009      	beq.n	1146 <udc_process_setup+0x52>
    1132:	2b08      	cmp	r3, #8
    1134:	d05c      	beq.n	11f0 <udc_process_setup+0xfc>
    1136:	2b00      	cmp	r3, #0
    1138:	d000      	beq.n	113c <udc_process_setup+0x48>
    113a:	e14b      	b.n	13d4 <udc_process_setup+0x2e0>
    113c:	488a      	ldr	r0, [pc, #552]	; (1368 <udc_process_setup+0x274>)
    113e:	2d02      	cmp	r5, #2
    1140:	d000      	beq.n	1144 <udc_process_setup+0x50>
    1142:	e147      	b.n	13d4 <udc_process_setup+0x2e0>
    1144:	e058      	b.n	11f8 <udc_process_setup+0x104>
    1146:	8863      	ldrh	r3, [r4, #2]
    1148:	0a1d      	lsrs	r5, r3, #8
    114a:	2d02      	cmp	r5, #2
    114c:	d00c      	beq.n	1168 <udc_process_setup+0x74>
    114e:	d806      	bhi.n	115e <udc_process_setup+0x6a>
    1150:	2d01      	cmp	r5, #1
    1152:	d000      	beq.n	1156 <udc_process_setup+0x62>
    1154:	e13e      	b.n	13d4 <udc_process_setup+0x2e0>
    1156:	4b85      	ldr	r3, [pc, #532]	; (136c <udc_process_setup+0x278>)
    1158:	6818      	ldr	r0, [r3, #0]
    115a:	7801      	ldrb	r1, [r0, #0]
    115c:	e03f      	b.n	11de <udc_process_setup+0xea>
    115e:	2d03      	cmp	r5, #3
    1160:	d01f      	beq.n	11a2 <udc_process_setup+0xae>
    1162:	2d0f      	cmp	r5, #15
    1164:	d013      	beq.n	118e <udc_process_setup+0x9a>
    1166:	e135      	b.n	13d4 <udc_process_setup+0x2e0>
    1168:	4a80      	ldr	r2, [pc, #512]	; (136c <udc_process_setup+0x278>)
    116a:	b2db      	uxtb	r3, r3
    116c:	6811      	ldr	r1, [r2, #0]
    116e:	7c49      	ldrb	r1, [r1, #17]
    1170:	4299      	cmp	r1, r3
    1172:	d800      	bhi.n	1176 <udc_process_setup+0x82>
    1174:	e12e      	b.n	13d4 <udc_process_setup+0x2e0>
    1176:	6852      	ldr	r2, [r2, #4]
    1178:	00db      	lsls	r3, r3, #3
    117a:	5898      	ldr	r0, [r3, r2]
    117c:	78c1      	ldrb	r1, [r0, #3]
    117e:	7883      	ldrb	r3, [r0, #2]
    1180:	0209      	lsls	r1, r1, #8
    1182:	4319      	orrs	r1, r3
    1184:	4b7a      	ldr	r3, [pc, #488]	; (1370 <udc_process_setup+0x27c>)
    1186:	4798      	blx	r3
    1188:	68a3      	ldr	r3, [r4, #8]
    118a:	705d      	strb	r5, [r3, #1]
    118c:	e029      	b.n	11e2 <udc_process_setup+0xee>
    118e:	4b77      	ldr	r3, [pc, #476]	; (136c <udc_process_setup+0x278>)
    1190:	6898      	ldr	r0, [r3, #8]
    1192:	2800      	cmp	r0, #0
    1194:	d100      	bne.n	1198 <udc_process_setup+0xa4>
    1196:	e11d      	b.n	13d4 <udc_process_setup+0x2e0>
    1198:	78c1      	ldrb	r1, [r0, #3]
    119a:	7883      	ldrb	r3, [r0, #2]
    119c:	0209      	lsls	r1, r1, #8
    119e:	4319      	orrs	r1, r3
    11a0:	e01d      	b.n	11de <udc_process_setup+0xea>
    11a2:	b2db      	uxtb	r3, r3
    11a4:	2b01      	cmp	r3, #1
    11a6:	d00a      	beq.n	11be <udc_process_setup+0xca>
    11a8:	2b00      	cmp	r3, #0
    11aa:	d005      	beq.n	11b8 <udc_process_setup+0xc4>
    11ac:	2b02      	cmp	r3, #2
    11ae:	d000      	beq.n	11b2 <udc_process_setup+0xbe>
    11b0:	e110      	b.n	13d4 <udc_process_setup+0x2e0>
    11b2:	210f      	movs	r1, #15
    11b4:	4d6f      	ldr	r5, [pc, #444]	; (1374 <udc_process_setup+0x280>)
    11b6:	e004      	b.n	11c2 <udc_process_setup+0xce>
    11b8:	486f      	ldr	r0, [pc, #444]	; (1378 <udc_process_setup+0x284>)
    11ba:	2104      	movs	r1, #4
    11bc:	e00f      	b.n	11de <udc_process_setup+0xea>
    11be:	2109      	movs	r1, #9
    11c0:	4d6e      	ldr	r5, [pc, #440]	; (137c <udc_process_setup+0x288>)
    11c2:	2300      	movs	r3, #0
    11c4:	486e      	ldr	r0, [pc, #440]	; (1380 <udc_process_setup+0x28c>)
    11c6:	005a      	lsls	r2, r3, #1
    11c8:	5cee      	ldrb	r6, [r5, r3]
    11ca:	1882      	adds	r2, r0, r2
    11cc:	3301      	adds	r3, #1
    11ce:	8056      	strh	r6, [r2, #2]
    11d0:	b2da      	uxtb	r2, r3
    11d2:	428a      	cmp	r2, r1
    11d4:	d3f6      	bcc.n	11c4 <udc_process_setup+0xd0>
    11d6:	0049      	lsls	r1, r1, #1
    11d8:	3102      	adds	r1, #2
    11da:	7001      	strb	r1, [r0, #0]
    11dc:	b289      	uxth	r1, r1
    11de:	4b64      	ldr	r3, [pc, #400]	; (1370 <udc_process_setup+0x27c>)
    11e0:	4798      	blx	r3
    11e2:	88e3      	ldrh	r3, [r4, #6]
    11e4:	89a2      	ldrh	r2, [r4, #12]
    11e6:	429a      	cmp	r2, r3
    11e8:	d800      	bhi.n	11ec <udc_process_setup+0xf8>
    11ea:	e139      	b.n	1460 <udc_process_setup+0x36c>
    11ec:	81a3      	strh	r3, [r4, #12]
    11ee:	e137      	b.n	1460 <udc_process_setup+0x36c>
    11f0:	2d01      	cmp	r5, #1
    11f2:	d000      	beq.n	11f6 <udc_process_setup+0x102>
    11f4:	e0ee      	b.n	13d4 <udc_process_setup+0x2e0>
    11f6:	4863      	ldr	r0, [pc, #396]	; (1384 <udc_process_setup+0x290>)
    11f8:	1c29      	adds	r1, r5, #0
    11fa:	4b5d      	ldr	r3, [pc, #372]	; (1370 <udc_process_setup+0x27c>)
    11fc:	4798      	blx	r3
    11fe:	e12f      	b.n	1460 <udc_process_setup+0x36c>
    1200:	2b01      	cmp	r3, #1
    1202:	d123      	bne.n	124c <udc_process_setup+0x158>
    1204:	7863      	ldrb	r3, [r4, #1]
    1206:	2b0a      	cmp	r3, #10
    1208:	d000      	beq.n	120c <udc_process_setup+0x118>
    120a:	e0e3      	b.n	13d4 <udc_process_setup+0x2e0>
    120c:	2d01      	cmp	r5, #1
    120e:	d000      	beq.n	1212 <udc_process_setup+0x11e>
    1210:	e0e0      	b.n	13d4 <udc_process_setup+0x2e0>
    1212:	4b5c      	ldr	r3, [pc, #368]	; (1384 <udc_process_setup+0x290>)
    1214:	781b      	ldrb	r3, [r3, #0]
    1216:	2b00      	cmp	r3, #0
    1218:	d100      	bne.n	121c <udc_process_setup+0x128>
    121a:	e0db      	b.n	13d4 <udc_process_setup+0x2e0>
    121c:	4b5a      	ldr	r3, [pc, #360]	; (1388 <udc_process_setup+0x294>)
    121e:	7925      	ldrb	r5, [r4, #4]
    1220:	681e      	ldr	r6, [r3, #0]
    1222:	6833      	ldr	r3, [r6, #0]
    1224:	791b      	ldrb	r3, [r3, #4]
    1226:	42ab      	cmp	r3, r5
    1228:	d800      	bhi.n	122c <udc_process_setup+0x138>
    122a:	e0d3      	b.n	13d4 <udc_process_setup+0x2e0>
    122c:	1c28      	adds	r0, r5, #0
    122e:	4b57      	ldr	r3, [pc, #348]	; (138c <udc_process_setup+0x298>)
    1230:	4798      	blx	r3
    1232:	2800      	cmp	r0, #0
    1234:	d100      	bne.n	1238 <udc_process_setup+0x144>
    1236:	e0cd      	b.n	13d4 <udc_process_setup+0x2e0>
    1238:	6873      	ldr	r3, [r6, #4]
    123a:	00ad      	lsls	r5, r5, #2
    123c:	58eb      	ldr	r3, [r5, r3]
    123e:	68db      	ldr	r3, [r3, #12]
    1240:	4798      	blx	r3
    1242:	4b53      	ldr	r3, [pc, #332]	; (1390 <udc_process_setup+0x29c>)
    1244:	2101      	movs	r1, #1
    1246:	7018      	strb	r0, [r3, #0]
    1248:	1c18      	adds	r0, r3, #0
    124a:	e7d6      	b.n	11fa <udc_process_setup+0x106>
    124c:	2b02      	cmp	r3, #2
    124e:	d000      	beq.n	1252 <udc_process_setup+0x15e>
    1250:	e0c0      	b.n	13d4 <udc_process_setup+0x2e0>
    1252:	7863      	ldrb	r3, [r4, #1]
    1254:	2b00      	cmp	r3, #0
    1256:	d000      	beq.n	125a <udc_process_setup+0x166>
    1258:	e0bc      	b.n	13d4 <udc_process_setup+0x2e0>
    125a:	2d02      	cmp	r5, #2
    125c:	d000      	beq.n	1260 <udc_process_setup+0x16c>
    125e:	e0b9      	b.n	13d4 <udc_process_setup+0x2e0>
    1260:	4b4c      	ldr	r3, [pc, #304]	; (1394 <udc_process_setup+0x2a0>)
    1262:	7920      	ldrb	r0, [r4, #4]
    1264:	4798      	blx	r3
    1266:	4b4c      	ldr	r3, [pc, #304]	; (1398 <udc_process_setup+0x2a4>)
    1268:	8018      	strh	r0, [r3, #0]
    126a:	1c18      	adds	r0, r3, #0
    126c:	e7c4      	b.n	11f8 <udc_process_setup+0x104>
    126e:	4013      	ands	r3, r2
    1270:	d14f      	bne.n	1312 <udc_process_setup+0x21e>
    1272:	7860      	ldrb	r0, [r4, #1]
    1274:	3801      	subs	r0, #1
    1276:	2808      	cmp	r0, #8
    1278:	d900      	bls.n	127c <udc_process_setup+0x188>
    127a:	e0ab      	b.n	13d4 <udc_process_setup+0x2e0>
    127c:	f002 ffee 	bl	425c <__gnu_thumb1_case_uqi>
    1280:	aaaaaa0c 	.word	0xaaaaaa0c
    1284:	aaaaaa05 	.word	0xaaaaaa05
    1288:	1a          	.byte	0x1a
    1289:	00          	.byte	0x00
    128a:	88e3      	ldrh	r3, [r4, #6]
    128c:	2b00      	cmp	r3, #0
    128e:	d000      	beq.n	1292 <udc_process_setup+0x19e>
    1290:	e0a0      	b.n	13d4 <udc_process_setup+0x2e0>
    1292:	4b42      	ldr	r3, [pc, #264]	; (139c <udc_process_setup+0x2a8>)
    1294:	6123      	str	r3, [r4, #16]
    1296:	e0e3      	b.n	1460 <udc_process_setup+0x36c>
    1298:	88e3      	ldrh	r3, [r4, #6]
    129a:	2b00      	cmp	r3, #0
    129c:	d000      	beq.n	12a0 <udc_process_setup+0x1ac>
    129e:	e099      	b.n	13d4 <udc_process_setup+0x2e0>
    12a0:	8863      	ldrh	r3, [r4, #2]
    12a2:	2b01      	cmp	r3, #1
    12a4:	d000      	beq.n	12a8 <udc_process_setup+0x1b4>
    12a6:	e095      	b.n	13d4 <udc_process_setup+0x2e0>
    12a8:	2102      	movs	r1, #2
    12aa:	4a2f      	ldr	r2, [pc, #188]	; (1368 <udc_process_setup+0x274>)
    12ac:	8813      	ldrh	r3, [r2, #0]
    12ae:	438b      	bics	r3, r1
    12b0:	8013      	strh	r3, [r2, #0]
    12b2:	e0d5      	b.n	1460 <udc_process_setup+0x36c>
    12b4:	88e5      	ldrh	r5, [r4, #6]
    12b6:	2d00      	cmp	r5, #0
    12b8:	d000      	beq.n	12bc <udc_process_setup+0x1c8>
    12ba:	e08b      	b.n	13d4 <udc_process_setup+0x2e0>
    12bc:	4b38      	ldr	r3, [pc, #224]	; (13a0 <udc_process_setup+0x2ac>)
    12be:	4798      	blx	r3
    12c0:	2800      	cmp	r0, #0
    12c2:	d100      	bne.n	12c6 <udc_process_setup+0x1d2>
    12c4:	e086      	b.n	13d4 <udc_process_setup+0x2e0>
    12c6:	4e29      	ldr	r6, [pc, #164]	; (136c <udc_process_setup+0x278>)
    12c8:	78a2      	ldrb	r2, [r4, #2]
    12ca:	6833      	ldr	r3, [r6, #0]
    12cc:	7c5b      	ldrb	r3, [r3, #17]
    12ce:	429a      	cmp	r2, r3
    12d0:	dd00      	ble.n	12d4 <udc_process_setup+0x1e0>
    12d2:	e07f      	b.n	13d4 <udc_process_setup+0x2e0>
    12d4:	4b33      	ldr	r3, [pc, #204]	; (13a4 <udc_process_setup+0x2b0>)
    12d6:	4798      	blx	r3
    12d8:	78a3      	ldrb	r3, [r4, #2]
    12da:	4a2a      	ldr	r2, [pc, #168]	; (1384 <udc_process_setup+0x290>)
    12dc:	7013      	strb	r3, [r2, #0]
    12de:	2b00      	cmp	r3, #0
    12e0:	d100      	bne.n	12e4 <udc_process_setup+0x1f0>
    12e2:	e0bd      	b.n	1460 <udc_process_setup+0x36c>
    12e4:	4a28      	ldr	r2, [pc, #160]	; (1388 <udc_process_setup+0x294>)
    12e6:	4930      	ldr	r1, [pc, #192]	; (13a8 <udc_process_setup+0x2b4>)
    12e8:	185b      	adds	r3, r3, r1
    12ea:	6871      	ldr	r1, [r6, #4]
    12ec:	1c16      	adds	r6, r2, #0
    12ee:	00db      	lsls	r3, r3, #3
    12f0:	18cb      	adds	r3, r1, r3
    12f2:	6013      	str	r3, [r2, #0]
    12f4:	6833      	ldr	r3, [r6, #0]
    12f6:	681b      	ldr	r3, [r3, #0]
    12f8:	791b      	ldrb	r3, [r3, #4]
    12fa:	42ab      	cmp	r3, r5
    12fc:	d800      	bhi.n	1300 <udc_process_setup+0x20c>
    12fe:	e0af      	b.n	1460 <udc_process_setup+0x36c>
    1300:	1c28      	adds	r0, r5, #0
    1302:	2100      	movs	r1, #0
    1304:	4b29      	ldr	r3, [pc, #164]	; (13ac <udc_process_setup+0x2b8>)
    1306:	4798      	blx	r3
    1308:	2800      	cmp	r0, #0
    130a:	d063      	beq.n	13d4 <udc_process_setup+0x2e0>
    130c:	3501      	adds	r5, #1
    130e:	b2ed      	uxtb	r5, r5
    1310:	e7f0      	b.n	12f4 <udc_process_setup+0x200>
    1312:	2b01      	cmp	r3, #1
    1314:	d115      	bne.n	1342 <udc_process_setup+0x24e>
    1316:	7863      	ldrb	r3, [r4, #1]
    1318:	2b0b      	cmp	r3, #11
    131a:	d15b      	bne.n	13d4 <udc_process_setup+0x2e0>
    131c:	88e3      	ldrh	r3, [r4, #6]
    131e:	2b00      	cmp	r3, #0
    1320:	d158      	bne.n	13d4 <udc_process_setup+0x2e0>
    1322:	4b18      	ldr	r3, [pc, #96]	; (1384 <udc_process_setup+0x290>)
    1324:	781b      	ldrb	r3, [r3, #0]
    1326:	2b00      	cmp	r3, #0
    1328:	d054      	beq.n	13d4 <udc_process_setup+0x2e0>
    132a:	7926      	ldrb	r6, [r4, #4]
    132c:	4b20      	ldr	r3, [pc, #128]	; (13b0 <udc_process_setup+0x2bc>)
    132e:	1c30      	adds	r0, r6, #0
    1330:	8865      	ldrh	r5, [r4, #2]
    1332:	4798      	blx	r3
    1334:	2800      	cmp	r0, #0
    1336:	d04d      	beq.n	13d4 <udc_process_setup+0x2e0>
    1338:	b2e9      	uxtb	r1, r5
    133a:	1c30      	adds	r0, r6, #0
    133c:	4b1b      	ldr	r3, [pc, #108]	; (13ac <udc_process_setup+0x2b8>)
    133e:	4798      	blx	r3
    1340:	e046      	b.n	13d0 <udc_process_setup+0x2dc>
    1342:	2b02      	cmp	r3, #2
    1344:	d146      	bne.n	13d4 <udc_process_setup+0x2e0>
    1346:	7863      	ldrb	r3, [r4, #1]
    1348:	2b01      	cmp	r3, #1
    134a:	d002      	beq.n	1352 <udc_process_setup+0x25e>
    134c:	2b03      	cmp	r3, #3
    134e:	d033      	beq.n	13b8 <udc_process_setup+0x2c4>
    1350:	e040      	b.n	13d4 <udc_process_setup+0x2e0>
    1352:	88e3      	ldrh	r3, [r4, #6]
    1354:	2b00      	cmp	r3, #0
    1356:	d13d      	bne.n	13d4 <udc_process_setup+0x2e0>
    1358:	8863      	ldrh	r3, [r4, #2]
    135a:	2b00      	cmp	r3, #0
    135c:	d13a      	bne.n	13d4 <udc_process_setup+0x2e0>
    135e:	7920      	ldrb	r0, [r4, #4]
    1360:	4b14      	ldr	r3, [pc, #80]	; (13b4 <udc_process_setup+0x2c0>)
    1362:	e034      	b.n	13ce <udc_process_setup+0x2da>
    1364:	200009c8 	.word	0x200009c8
    1368:	20000642 	.word	0x20000642
    136c:	20000034 	.word	0x20000034
    1370:	00003105 	.word	0x00003105
    1374:	200000a7 	.word	0x200000a7
    1378:	200000e4 	.word	0x200000e4
    137c:	200000b7 	.word	0x200000b7
    1380:	200000c4 	.word	0x200000c4
    1384:	20000644 	.word	0x20000644
    1388:	2000063c 	.word	0x2000063c
    138c:	00000f31 	.word	0x00000f31
    1390:	20000640 	.word	0x20000640
    1394:	00002de1 	.word	0x00002de1
    1398:	20000638 	.word	0x20000638
    139c:	00000f19 	.word	0x00000f19
    13a0:	000030bd 	.word	0x000030bd
    13a4:	00001079 	.word	0x00001079
    13a8:	1fffffff 	.word	0x1fffffff
    13ac:	00000fb9 	.word	0x00000fb9
    13b0:	00001011 	.word	0x00001011
    13b4:	00002efd 	.word	0x00002efd
    13b8:	88e3      	ldrh	r3, [r4, #6]
    13ba:	2b00      	cmp	r3, #0
    13bc:	d10a      	bne.n	13d4 <udc_process_setup+0x2e0>
    13be:	8863      	ldrh	r3, [r4, #2]
    13c0:	2b00      	cmp	r3, #0
    13c2:	d107      	bne.n	13d4 <udc_process_setup+0x2e0>
    13c4:	7920      	ldrb	r0, [r4, #4]
    13c6:	4b28      	ldr	r3, [pc, #160]	; (1468 <udc_process_setup+0x374>)
    13c8:	4798      	blx	r3
    13ca:	7920      	ldrb	r0, [r4, #4]
    13cc:	4b27      	ldr	r3, [pc, #156]	; (146c <udc_process_setup+0x378>)
    13ce:	4798      	blx	r3
    13d0:	2800      	cmp	r0, #0
    13d2:	d145      	bne.n	1460 <udc_process_setup+0x36c>
    13d4:	231f      	movs	r3, #31
    13d6:	7822      	ldrb	r2, [r4, #0]
    13d8:	4013      	ands	r3, r2
    13da:	2b01      	cmp	r3, #1
    13dc:	d11e      	bne.n	141c <udc_process_setup+0x328>
    13de:	4b24      	ldr	r3, [pc, #144]	; (1470 <udc_process_setup+0x37c>)
    13e0:	781b      	ldrb	r3, [r3, #0]
    13e2:	2b00      	cmp	r3, #0
    13e4:	d01a      	beq.n	141c <udc_process_setup+0x328>
    13e6:	4b23      	ldr	r3, [pc, #140]	; (1474 <udc_process_setup+0x380>)
    13e8:	7925      	ldrb	r5, [r4, #4]
    13ea:	681e      	ldr	r6, [r3, #0]
    13ec:	6833      	ldr	r3, [r6, #0]
    13ee:	791b      	ldrb	r3, [r3, #4]
    13f0:	42ab      	cmp	r3, r5
    13f2:	d913      	bls.n	141c <udc_process_setup+0x328>
    13f4:	1c28      	adds	r0, r5, #0
    13f6:	2100      	movs	r1, #0
    13f8:	4f1f      	ldr	r7, [pc, #124]	; (1478 <udc_process_setup+0x384>)
    13fa:	47b8      	blx	r7
    13fc:	2800      	cmp	r0, #0
    13fe:	d00d      	beq.n	141c <udc_process_setup+0x328>
    1400:	6873      	ldr	r3, [r6, #4]
    1402:	00aa      	lsls	r2, r5, #2
    1404:	58d6      	ldr	r6, [r2, r3]
    1406:	68f3      	ldr	r3, [r6, #12]
    1408:	4798      	blx	r3
    140a:	1c01      	adds	r1, r0, #0
    140c:	1c28      	adds	r0, r5, #0
    140e:	47b8      	blx	r7
    1410:	2800      	cmp	r0, #0
    1412:	d003      	beq.n	141c <udc_process_setup+0x328>
    1414:	68b3      	ldr	r3, [r6, #8]
    1416:	4798      	blx	r3
    1418:	2800      	cmp	r0, #0
    141a:	d121      	bne.n	1460 <udc_process_setup+0x36c>
    141c:	231f      	movs	r3, #31
    141e:	7822      	ldrb	r2, [r4, #0]
    1420:	4013      	ands	r3, r2
    1422:	2b02      	cmp	r3, #2
    1424:	d11e      	bne.n	1464 <udc_process_setup+0x370>
    1426:	4b12      	ldr	r3, [pc, #72]	; (1470 <udc_process_setup+0x37c>)
    1428:	2400      	movs	r4, #0
    142a:	781b      	ldrb	r3, [r3, #0]
    142c:	2b00      	cmp	r3, #0
    142e:	d019      	beq.n	1464 <udc_process_setup+0x370>
    1430:	4b10      	ldr	r3, [pc, #64]	; (1474 <udc_process_setup+0x380>)
    1432:	681b      	ldr	r3, [r3, #0]
    1434:	681a      	ldr	r2, [r3, #0]
    1436:	7912      	ldrb	r2, [r2, #4]
    1438:	42a2      	cmp	r2, r4
    143a:	d913      	bls.n	1464 <udc_process_setup+0x370>
    143c:	685b      	ldr	r3, [r3, #4]
    143e:	00a2      	lsls	r2, r4, #2
    1440:	58d5      	ldr	r5, [r2, r3]
    1442:	68eb      	ldr	r3, [r5, #12]
    1444:	4798      	blx	r3
    1446:	4b0c      	ldr	r3, [pc, #48]	; (1478 <udc_process_setup+0x384>)
    1448:	1c01      	adds	r1, r0, #0
    144a:	1c20      	adds	r0, r4, #0
    144c:	4798      	blx	r3
    144e:	2800      	cmp	r0, #0
    1450:	d008      	beq.n	1464 <udc_process_setup+0x370>
    1452:	68ab      	ldr	r3, [r5, #8]
    1454:	4798      	blx	r3
    1456:	2800      	cmp	r0, #0
    1458:	d102      	bne.n	1460 <udc_process_setup+0x36c>
    145a:	3401      	adds	r4, #1
    145c:	b2e4      	uxtb	r4, r4
    145e:	e7e7      	b.n	1430 <udc_process_setup+0x33c>
    1460:	2001      	movs	r0, #1
    1462:	e000      	b.n	1466 <udc_process_setup+0x372>
    1464:	2000      	movs	r0, #0
    1466:	bdf8      	pop	{r3, r4, r5, r6, r7, pc}
    1468:	00002c61 	.word	0x00002c61
    146c:	00002df5 	.word	0x00002df5
    1470:	20000644 	.word	0x20000644
    1474:	2000063c 	.word	0x2000063c
    1478:	00000f31 	.word	0x00000f31

0000147c <cpu_irq_enter_critical>:
    147c:	4b09      	ldr	r3, [pc, #36]	; (14a4 <cpu_irq_enter_critical+0x28>)
    147e:	6819      	ldr	r1, [r3, #0]
    1480:	2900      	cmp	r1, #0
    1482:	d10b      	bne.n	149c <cpu_irq_enter_critical+0x20>
    1484:	f3ef 8010 	mrs	r0, PRIMASK
    1488:	4a07      	ldr	r2, [pc, #28]	; (14a8 <cpu_irq_enter_critical+0x2c>)
    148a:	2800      	cmp	r0, #0
    148c:	d105      	bne.n	149a <cpu_irq_enter_critical+0x1e>
    148e:	b672      	cpsid	i
    1490:	f3bf 8f5f 	dmb	sy
    1494:	4905      	ldr	r1, [pc, #20]	; (14ac <cpu_irq_enter_critical+0x30>)
    1496:	7008      	strb	r0, [r1, #0]
    1498:	2101      	movs	r1, #1
    149a:	7011      	strb	r1, [r2, #0]
    149c:	681a      	ldr	r2, [r3, #0]
    149e:	3201      	adds	r2, #1
    14a0:	601a      	str	r2, [r3, #0]
    14a2:	4770      	bx	lr
    14a4:	2000064c 	.word	0x2000064c
    14a8:	20000650 	.word	0x20000650
    14ac:	200000e8 	.word	0x200000e8

000014b0 <cpu_irq_leave_critical>:
    14b0:	4b08      	ldr	r3, [pc, #32]	; (14d4 <cpu_irq_leave_critical+0x24>)
    14b2:	681a      	ldr	r2, [r3, #0]
    14b4:	3a01      	subs	r2, #1
    14b6:	601a      	str	r2, [r3, #0]
    14b8:	681b      	ldr	r3, [r3, #0]
    14ba:	2b00      	cmp	r3, #0
    14bc:	d109      	bne.n	14d2 <cpu_irq_leave_critical+0x22>
    14be:	4b06      	ldr	r3, [pc, #24]	; (14d8 <cpu_irq_leave_critical+0x28>)
    14c0:	781b      	ldrb	r3, [r3, #0]
    14c2:	2b00      	cmp	r3, #0
    14c4:	d005      	beq.n	14d2 <cpu_irq_leave_critical+0x22>
    14c6:	2201      	movs	r2, #1
    14c8:	4b04      	ldr	r3, [pc, #16]	; (14dc <cpu_irq_leave_critical+0x2c>)
    14ca:	701a      	strb	r2, [r3, #0]
    14cc:	f3bf 8f5f 	dmb	sy
    14d0:	b662      	cpsie	i
    14d2:	4770      	bx	lr
    14d4:	2000064c 	.word	0x2000064c
    14d8:	20000650 	.word	0x20000650
    14dc:	200000e8 	.word	0x200000e8

000014e0 <system_board_init>:
    14e0:	b5f7      	push	{r0, r1, r2, r4, r5, r6, r7, lr}
    14e2:	2501      	movs	r5, #1
    14e4:	2700      	movs	r7, #0
    14e6:	ac01      	add	r4, sp, #4
    14e8:	4e08      	ldr	r6, [pc, #32]	; (150c <system_board_init+0x2c>)
    14ea:	1c21      	adds	r1, r4, #0
    14ec:	203e      	movs	r0, #62	; 0x3e
    14ee:	7065      	strb	r5, [r4, #1]
    14f0:	70a7      	strb	r7, [r4, #2]
    14f2:	7025      	strb	r5, [r4, #0]
    14f4:	47b0      	blx	r6
    14f6:	2280      	movs	r2, #128	; 0x80
    14f8:	4b05      	ldr	r3, [pc, #20]	; (1510 <system_board_init+0x30>)
    14fa:	05d2      	lsls	r2, r2, #23
    14fc:	601a      	str	r2, [r3, #0]
    14fe:	200f      	movs	r0, #15
    1500:	1c21      	adds	r1, r4, #0
    1502:	7027      	strb	r7, [r4, #0]
    1504:	7065      	strb	r5, [r4, #1]
    1506:	47b0      	blx	r6
    1508:	bdf7      	pop	{r0, r1, r2, r4, r5, r6, r7, pc}
    150a:	46c0      	nop			; (mov r8, r8)
    150c:	000016dd 	.word	0x000016dd
    1510:	41004498 	.word	0x41004498

00001514 <extint_register_callback>:
    1514:	b510      	push	{r4, lr}
    1516:	2317      	movs	r3, #23
    1518:	2a00      	cmp	r2, #0
    151a:	d10b      	bne.n	1534 <extint_register_callback+0x20>
    151c:	4b06      	ldr	r3, [pc, #24]	; (1538 <extint_register_callback+0x24>)
    151e:	0089      	lsls	r1, r1, #2
    1520:	58cc      	ldr	r4, [r1, r3]
    1522:	2c00      	cmp	r4, #0
    1524:	d102      	bne.n	152c <extint_register_callback+0x18>
    1526:	50c8      	str	r0, [r1, r3]
    1528:	1c23      	adds	r3, r4, #0
    152a:	e003      	b.n	1534 <extint_register_callback+0x20>
    152c:	1c13      	adds	r3, r2, #0
    152e:	4284      	cmp	r4, r0
    1530:	d000      	beq.n	1534 <extint_register_callback+0x20>
    1532:	231d      	movs	r3, #29
    1534:	1c18      	adds	r0, r3, #0
    1536:	bd10      	pop	{r4, pc}
    1538:	20000748 	.word	0x20000748

0000153c <extint_chan_enable_callback>:
    153c:	2317      	movs	r3, #23
    153e:	2900      	cmp	r1, #0
    1540:	d10a      	bne.n	1558 <extint_chan_enable_callback+0x1c>
    1542:	281f      	cmp	r0, #31
    1544:	d806      	bhi.n	1554 <extint_chan_enable_callback+0x18>
    1546:	3b16      	subs	r3, #22
    1548:	4083      	lsls	r3, r0
    154a:	1c18      	adds	r0, r3, #0
    154c:	4b03      	ldr	r3, [pc, #12]	; (155c <extint_chan_enable_callback+0x20>)
    154e:	60d8      	str	r0, [r3, #12]
    1550:	1c0b      	adds	r3, r1, #0
    1552:	e001      	b.n	1558 <extint_chan_enable_callback+0x1c>
    1554:	60c9      	str	r1, [r1, #12]
    1556:	deff      	udf	#255	; 0xff
    1558:	1c18      	adds	r0, r3, #0
    155a:	4770      	bx	lr
    155c:	40001800 	.word	0x40001800

00001560 <extint_chan_disable_callback>:
    1560:	2317      	movs	r3, #23
    1562:	2900      	cmp	r1, #0
    1564:	d10a      	bne.n	157c <extint_chan_disable_callback+0x1c>
    1566:	281f      	cmp	r0, #31
    1568:	d806      	bhi.n	1578 <extint_chan_disable_callback+0x18>
    156a:	3b16      	subs	r3, #22
    156c:	4083      	lsls	r3, r0
    156e:	1c18      	adds	r0, r3, #0
    1570:	4b03      	ldr	r3, [pc, #12]	; (1580 <extint_chan_disable_callback+0x20>)
    1572:	6098      	str	r0, [r3, #8]
    1574:	1c0b      	adds	r3, r1, #0
    1576:	e001      	b.n	157c <extint_chan_disable_callback+0x1c>
    1578:	6089      	str	r1, [r1, #8]
    157a:	deff      	udf	#255	; 0xff
    157c:	1c18      	adds	r0, r3, #0
    157e:	4770      	bx	lr
    1580:	40001800 	.word	0x40001800

00001584 <EIC_Handler>:
    1584:	2300      	movs	r3, #0
    1586:	b510      	push	{r4, lr}
    1588:	4c0a      	ldr	r4, [pc, #40]	; (15b4 <EIC_Handler+0x30>)
    158a:	7023      	strb	r3, [r4, #0]
    158c:	7823      	ldrb	r3, [r4, #0]
    158e:	2b0f      	cmp	r3, #15
    1590:	d80f      	bhi.n	15b2 <EIC_Handler+0x2e>
    1592:	2201      	movs	r2, #1
    1594:	409a      	lsls	r2, r3
    1596:	4908      	ldr	r1, [pc, #32]	; (15b8 <EIC_Handler+0x34>)
    1598:	6908      	ldr	r0, [r1, #16]
    159a:	4210      	tst	r0, r2
    159c:	d006      	beq.n	15ac <EIC_Handler+0x28>
    159e:	610a      	str	r2, [r1, #16]
    15a0:	4a06      	ldr	r2, [pc, #24]	; (15bc <EIC_Handler+0x38>)
    15a2:	009b      	lsls	r3, r3, #2
    15a4:	589b      	ldr	r3, [r3, r2]
    15a6:	2b00      	cmp	r3, #0
    15a8:	d000      	beq.n	15ac <EIC_Handler+0x28>
    15aa:	4798      	blx	r3
    15ac:	7823      	ldrb	r3, [r4, #0]
    15ae:	3301      	adds	r3, #1
    15b0:	e7eb      	b.n	158a <EIC_Handler+0x6>
    15b2:	bd10      	pop	{r4, pc}
    15b4:	20000745 	.word	0x20000745
    15b8:	40001800 	.word	0x40001800
    15bc:	20000748 	.word	0x20000748

000015c0 <extint_is_syncing>:
    15c0:	4b01      	ldr	r3, [pc, #4]	; (15c8 <extint_is_syncing+0x8>)
    15c2:	7858      	ldrb	r0, [r3, #1]
    15c4:	09c0      	lsrs	r0, r0, #7
    15c6:	4770      	bx	lr
    15c8:	40001800 	.word	0x40001800

000015cc <_extint_enable>:
    15cc:	2102      	movs	r1, #2
    15ce:	b508      	push	{r3, lr}
    15d0:	4a04      	ldr	r2, [pc, #16]	; (15e4 <_extint_enable+0x18>)
    15d2:	7813      	ldrb	r3, [r2, #0]
    15d4:	430b      	orrs	r3, r1
    15d6:	7013      	strb	r3, [r2, #0]
    15d8:	4b03      	ldr	r3, [pc, #12]	; (15e8 <_extint_enable+0x1c>)
    15da:	4798      	blx	r3
    15dc:	2800      	cmp	r0, #0
    15de:	d1fb      	bne.n	15d8 <_extint_enable+0xc>
    15e0:	bd08      	pop	{r3, pc}
    15e2:	46c0      	nop			; (mov r8, r8)
    15e4:	40001800 	.word	0x40001800
    15e8:	000015c1 	.word	0x000015c1

000015ec <_system_extint_init>:
    15ec:	b507      	push	{r0, r1, r2, lr}
    15ee:	2140      	movs	r1, #64	; 0x40
    15f0:	4a11      	ldr	r2, [pc, #68]	; (1638 <_system_extint_init+0x4c>)
    15f2:	2005      	movs	r0, #5
    15f4:	6993      	ldr	r3, [r2, #24]
    15f6:	430b      	orrs	r3, r1
    15f8:	6193      	str	r3, [r2, #24]
    15fa:	2300      	movs	r3, #0
    15fc:	a901      	add	r1, sp, #4
    15fe:	700b      	strb	r3, [r1, #0]
    1600:	4b0e      	ldr	r3, [pc, #56]	; (163c <_system_extint_init+0x50>)
    1602:	4798      	blx	r3
    1604:	4b0e      	ldr	r3, [pc, #56]	; (1640 <_system_extint_init+0x54>)
    1606:	2005      	movs	r0, #5
    1608:	4798      	blx	r3
    160a:	2101      	movs	r1, #1
    160c:	4a0d      	ldr	r2, [pc, #52]	; (1644 <_system_extint_init+0x58>)
    160e:	7813      	ldrb	r3, [r2, #0]
    1610:	430b      	orrs	r3, r1
    1612:	7013      	strb	r3, [r2, #0]
    1614:	4b0c      	ldr	r3, [pc, #48]	; (1648 <_system_extint_init+0x5c>)
    1616:	4798      	blx	r3
    1618:	2800      	cmp	r0, #0
    161a:	d1fb      	bne.n	1614 <_system_extint_init+0x28>
    161c:	2200      	movs	r2, #0
    161e:	4b0b      	ldr	r3, [pc, #44]	; (164c <_system_extint_init+0x60>)
    1620:	18c3      	adds	r3, r0, r3
    1622:	3004      	adds	r0, #4
    1624:	601a      	str	r2, [r3, #0]
    1626:	2840      	cmp	r0, #64	; 0x40
    1628:	d1f8      	bne.n	161c <_system_extint_init+0x30>
    162a:	4b09      	ldr	r3, [pc, #36]	; (1650 <_system_extint_init+0x64>)
    162c:	3210      	adds	r2, #16
    162e:	601a      	str	r2, [r3, #0]
    1630:	4b08      	ldr	r3, [pc, #32]	; (1654 <_system_extint_init+0x68>)
    1632:	4798      	blx	r3
    1634:	bd07      	pop	{r0, r1, r2, pc}
    1636:	46c0      	nop			; (mov r8, r8)
    1638:	40000400 	.word	0x40000400
    163c:	00002501 	.word	0x00002501
    1640:	0000247d 	.word	0x0000247d
    1644:	40001800 	.word	0x40001800
    1648:	000015c1 	.word	0x000015c1
    164c:	20000748 	.word	0x20000748
    1650:	e000e100 	.word	0xe000e100
    1654:	000015cd 	.word	0x000015cd

00001658 <extint_chan_get_config_defaults>:
    1658:	2300      	movs	r3, #0
    165a:	2201      	movs	r2, #1
    165c:	6003      	str	r3, [r0, #0]
    165e:	6043      	str	r3, [r0, #4]
    1660:	7283      	strb	r3, [r0, #10]
    1662:	3302      	adds	r3, #2
    1664:	7202      	strb	r2, [r0, #8]
    1666:	7242      	strb	r2, [r0, #9]
    1668:	72c3      	strb	r3, [r0, #11]
    166a:	4770      	bx	lr

0000166c <extint_chan_set_config>:
    166c:	b5f7      	push	{r0, r1, r2, r4, r5, r6, r7, lr}
    166e:	1c0c      	adds	r4, r1, #0
    1670:	2600      	movs	r6, #0
    1672:	7923      	ldrb	r3, [r4, #4]
    1674:	a901      	add	r1, sp, #4
    1676:	704e      	strb	r6, [r1, #1]
    1678:	70ce      	strb	r6, [r1, #3]
    167a:	700b      	strb	r3, [r1, #0]
    167c:	7a23      	ldrb	r3, [r4, #8]
    167e:	1c05      	adds	r5, r0, #0
    1680:	708b      	strb	r3, [r1, #2]
    1682:	7820      	ldrb	r0, [r4, #0]
    1684:	4b13      	ldr	r3, [pc, #76]	; (16d4 <extint_chan_set_config+0x68>)
    1686:	4798      	blx	r3
    1688:	1c33      	adds	r3, r6, #0
    168a:	2d1f      	cmp	r5, #31
    168c:	d800      	bhi.n	1690 <extint_chan_set_config+0x24>
    168e:	4b12      	ldr	r3, [pc, #72]	; (16d8 <extint_chan_set_config+0x6c>)
    1690:	2607      	movs	r6, #7
    1692:	7aa2      	ldrb	r2, [r4, #10]
    1694:	402e      	ands	r6, r5
    1696:	00b6      	lsls	r6, r6, #2
    1698:	7ae1      	ldrb	r1, [r4, #11]
    169a:	2a00      	cmp	r2, #0
    169c:	d001      	beq.n	16a2 <extint_chan_set_config+0x36>
    169e:	2208      	movs	r2, #8
    16a0:	4311      	orrs	r1, r2
    16a2:	270f      	movs	r7, #15
    16a4:	40b7      	lsls	r7, r6
    16a6:	40b1      	lsls	r1, r6
    16a8:	08e8      	lsrs	r0, r5, #3
    16aa:	0080      	lsls	r0, r0, #2
    16ac:	1818      	adds	r0, r3, r0
    16ae:	6982      	ldr	r2, [r0, #24]
    16b0:	43ba      	bics	r2, r7
    16b2:	430a      	orrs	r2, r1
    16b4:	6182      	str	r2, [r0, #24]
    16b6:	7a62      	ldrb	r2, [r4, #9]
    16b8:	2001      	movs	r0, #1
    16ba:	2a00      	cmp	r2, #0
    16bc:	d004      	beq.n	16c8 <extint_chan_set_config+0x5c>
    16be:	40a8      	lsls	r0, r5
    16c0:	695a      	ldr	r2, [r3, #20]
    16c2:	4310      	orrs	r0, r2
    16c4:	6158      	str	r0, [r3, #20]
    16c6:	e003      	b.n	16d0 <extint_chan_set_config+0x64>
    16c8:	40a8      	lsls	r0, r5
    16ca:	695a      	ldr	r2, [r3, #20]
    16cc:	4382      	bics	r2, r0
    16ce:	615a      	str	r2, [r3, #20]
    16d0:	bdf7      	pop	{r0, r1, r2, r4, r5, r6, r7, pc}
    16d2:	46c0      	nop			; (mov r8, r8)
    16d4:	000025d5 	.word	0x000025d5
    16d8:	40001800 	.word	0x40001800

000016dc <port_pin_set_config>:
    16dc:	b507      	push	{r0, r1, r2, lr}
    16de:	2280      	movs	r2, #128	; 0x80
    16e0:	ab01      	add	r3, sp, #4
    16e2:	701a      	strb	r2, [r3, #0]
    16e4:	780a      	ldrb	r2, [r1, #0]
    16e6:	705a      	strb	r2, [r3, #1]
    16e8:	784a      	ldrb	r2, [r1, #1]
    16ea:	709a      	strb	r2, [r3, #2]
    16ec:	788a      	ldrb	r2, [r1, #2]
    16ee:	1c19      	adds	r1, r3, #0
    16f0:	70da      	strb	r2, [r3, #3]
    16f2:	4b01      	ldr	r3, [pc, #4]	; (16f8 <port_pin_set_config+0x1c>)
    16f4:	4798      	blx	r3
    16f6:	bd07      	pop	{r0, r1, r2, pc}
    16f8:	000025d5 	.word	0x000025d5

000016fc <_sercom_get_sync_baud_val>:
    16fc:	b510      	push	{r4, lr}
    16fe:	0849      	lsrs	r1, r1, #1
    1700:	1c04      	adds	r4, r0, #0
    1702:	2300      	movs	r3, #0
    1704:	2040      	movs	r0, #64	; 0x40
    1706:	428c      	cmp	r4, r1
    1708:	d80b      	bhi.n	1722 <_sercom_get_sync_baud_val+0x26>
    170a:	1c58      	adds	r0, r3, #1
    170c:	1b09      	subs	r1, r1, r4
    170e:	b280      	uxth	r0, r0
    1710:	42a1      	cmp	r1, r4
    1712:	d301      	bcc.n	1718 <_sercom_get_sync_baud_val+0x1c>
    1714:	1c03      	adds	r3, r0, #0
    1716:	e7f8      	b.n	170a <_sercom_get_sync_baud_val+0xe>
    1718:	2040      	movs	r0, #64	; 0x40
    171a:	2bff      	cmp	r3, #255	; 0xff
    171c:	d801      	bhi.n	1722 <_sercom_get_sync_baud_val+0x26>
    171e:	2000      	movs	r0, #0
    1720:	8013      	strh	r3, [r2, #0]
    1722:	bd10      	pop	{r4, pc}

00001724 <_sercom_get_async_baud_val>:
    1724:	b5f0      	push	{r4, r5, r6, r7, lr}
    1726:	1c06      	adds	r6, r0, #0
    1728:	1c34      	adds	r4, r6, #0
    172a:	b08b      	sub	sp, #44	; 0x2c
    172c:	a810      	add	r0, sp, #64	; 0x40
    172e:	7800      	ldrb	r0, [r0, #0]
    1730:	2740      	movs	r7, #64	; 0x40
    1732:	4344      	muls	r4, r0
    1734:	428c      	cmp	r4, r1
    1736:	d900      	bls.n	173a <_sercom_get_async_baud_val+0x16>
    1738:	e08f      	b.n	185a <_sercom_get_async_baud_val+0x136>
    173a:	9209      	str	r2, [sp, #36]	; 0x24
    173c:	1c1c      	adds	r4, r3, #0
    173e:	1c0d      	adds	r5, r1, #0
    1740:	1c32      	adds	r2, r6, #0
    1742:	2b00      	cmp	r3, #0
    1744:	d13b      	bne.n	17be <_sercom_get_async_baud_val+0x9a>
    1746:	1c19      	adds	r1, r3, #0
    1748:	4e45      	ldr	r6, [pc, #276]	; (1860 <_sercom_get_async_baud_val+0x13c>)
    174a:	47b0      	blx	r6
    174c:	2300      	movs	r3, #0
    174e:	2200      	movs	r2, #0
    1750:	9500      	str	r5, [sp, #0]
    1752:	1c1f      	adds	r7, r3, #0
    1754:	1c1d      	adds	r5, r3, #0
    1756:	233f      	movs	r3, #63	; 0x3f
    1758:	9401      	str	r4, [sp, #4]
    175a:	1c16      	adds	r6, r2, #0
    175c:	1c14      	adds	r4, r2, #0
    175e:	9004      	str	r0, [sp, #16]
    1760:	9303      	str	r3, [sp, #12]
    1762:	9a03      	ldr	r2, [sp, #12]
    1764:	4b3f      	ldr	r3, [pc, #252]	; (1864 <_sercom_get_async_baud_val+0x140>)
    1766:	2001      	movs	r0, #1
    1768:	2100      	movs	r1, #0
    176a:	4798      	blx	r3
    176c:	1c22      	adds	r2, r4, #0
    176e:	1c2b      	adds	r3, r5, #0
    1770:	1912      	adds	r2, r2, r4
    1772:	416b      	adcs	r3, r5
    1774:	4684      	mov	ip, r0
    1776:	9804      	ldr	r0, [sp, #16]
    1778:	1c14      	adds	r4, r2, #0
    177a:	1c1d      	adds	r5, r3, #0
    177c:	4208      	tst	r0, r1
    177e:	d003      	beq.n	1788 <_sercom_get_async_baud_val+0x64>
    1780:	2201      	movs	r2, #1
    1782:	4322      	orrs	r2, r4
    1784:	1c14      	adds	r4, r2, #0
    1786:	1c1d      	adds	r5, r3, #0
    1788:	9b01      	ldr	r3, [sp, #4]
    178a:	42ab      	cmp	r3, r5
    178c:	d80c      	bhi.n	17a8 <_sercom_get_async_baud_val+0x84>
    178e:	d102      	bne.n	1796 <_sercom_get_async_baud_val+0x72>
    1790:	9b00      	ldr	r3, [sp, #0]
    1792:	42a3      	cmp	r3, r4
    1794:	d808      	bhi.n	17a8 <_sercom_get_async_baud_val+0x84>
    1796:	9a00      	ldr	r2, [sp, #0]
    1798:	9b01      	ldr	r3, [sp, #4]
    179a:	4660      	mov	r0, ip
    179c:	4339      	orrs	r1, r7
    179e:	4330      	orrs	r0, r6
    17a0:	1aa4      	subs	r4, r4, r2
    17a2:	419d      	sbcs	r5, r3
    17a4:	1c06      	adds	r6, r0, #0
    17a6:	1c0f      	adds	r7, r1, #0
    17a8:	9b03      	ldr	r3, [sp, #12]
    17aa:	1e5a      	subs	r2, r3, #1
    17ac:	9203      	str	r2, [sp, #12]
    17ae:	d2d8      	bcs.n	1762 <_sercom_get_async_baud_val+0x3e>
    17b0:	2200      	movs	r2, #0
    17b2:	2301      	movs	r3, #1
    17b4:	1b92      	subs	r2, r2, r6
    17b6:	41bb      	sbcs	r3, r7
    17b8:	0c16      	lsrs	r6, r2, #16
    17ba:	041b      	lsls	r3, r3, #16
    17bc:	e049      	b.n	1852 <_sercom_get_async_baud_val+0x12e>
    17be:	2600      	movs	r6, #0
    17c0:	2b01      	cmp	r3, #1
    17c2:	d147      	bne.n	1854 <_sercom_get_async_baud_val+0x130>
    17c4:	0f4b      	lsrs	r3, r1, #29
    17c6:	9307      	str	r3, [sp, #28]
    17c8:	00cb      	lsls	r3, r1, #3
    17ca:	9308      	str	r3, [sp, #32]
    17cc:	1c31      	adds	r1, r6, #0
    17ce:	1c33      	adds	r3, r6, #0
    17d0:	4c23      	ldr	r4, [pc, #140]	; (1860 <_sercom_get_async_baud_val+0x13c>)
    17d2:	47a0      	blx	r4
    17d4:	9000      	str	r0, [sp, #0]
    17d6:	9101      	str	r1, [sp, #4]
    17d8:	b2f3      	uxtb	r3, r6
    17da:	9306      	str	r3, [sp, #24]
    17dc:	2300      	movs	r3, #0
    17de:	2400      	movs	r4, #0
    17e0:	2500      	movs	r5, #0
    17e2:	273f      	movs	r7, #63	; 0x3f
    17e4:	9303      	str	r3, [sp, #12]
    17e6:	1c3a      	adds	r2, r7, #0
    17e8:	4b1e      	ldr	r3, [pc, #120]	; (1864 <_sercom_get_async_baud_val+0x140>)
    17ea:	2001      	movs	r0, #1
    17ec:	2100      	movs	r1, #0
    17ee:	4798      	blx	r3
    17f0:	1c22      	adds	r2, r4, #0
    17f2:	1c2b      	adds	r3, r5, #0
    17f4:	1912      	adds	r2, r2, r4
    17f6:	416b      	adcs	r3, r5
    17f8:	9204      	str	r2, [sp, #16]
    17fa:	9305      	str	r3, [sp, #20]
    17fc:	1c1d      	adds	r5, r3, #0
    17fe:	9b08      	ldr	r3, [sp, #32]
    1800:	1c14      	adds	r4, r2, #0
    1802:	4003      	ands	r3, r0
    1804:	469c      	mov	ip, r3
    1806:	9b07      	ldr	r3, [sp, #28]
    1808:	4019      	ands	r1, r3
    180a:	4663      	mov	r3, ip
    180c:	4319      	orrs	r1, r3
    180e:	d003      	beq.n	1818 <_sercom_get_async_baud_val+0xf4>
    1810:	2201      	movs	r2, #1
    1812:	4322      	orrs	r2, r4
    1814:	1c14      	adds	r4, r2, #0
    1816:	9d05      	ldr	r5, [sp, #20]
    1818:	9b01      	ldr	r3, [sp, #4]
    181a:	42ab      	cmp	r3, r5
    181c:	d80a      	bhi.n	1834 <_sercom_get_async_baud_val+0x110>
    181e:	d102      	bne.n	1826 <_sercom_get_async_baud_val+0x102>
    1820:	9b00      	ldr	r3, [sp, #0]
    1822:	42a3      	cmp	r3, r4
    1824:	d806      	bhi.n	1834 <_sercom_get_async_baud_val+0x110>
    1826:	9a00      	ldr	r2, [sp, #0]
    1828:	9b01      	ldr	r3, [sp, #4]
    182a:	1aa4      	subs	r4, r4, r2
    182c:	419d      	sbcs	r5, r3
    182e:	9b03      	ldr	r3, [sp, #12]
    1830:	4303      	orrs	r3, r0
    1832:	9303      	str	r3, [sp, #12]
    1834:	3f01      	subs	r7, #1
    1836:	d2d6      	bcs.n	17e6 <_sercom_get_async_baud_val+0xc2>
    1838:	9b03      	ldr	r3, [sp, #12]
    183a:	4a0b      	ldr	r2, [pc, #44]	; (1868 <_sercom_get_async_baud_val+0x144>)
    183c:	1b9b      	subs	r3, r3, r6
    183e:	08db      	lsrs	r3, r3, #3
    1840:	4293      	cmp	r3, r2
    1842:	d904      	bls.n	184e <_sercom_get_async_baud_val+0x12a>
    1844:	3601      	adds	r6, #1
    1846:	2e08      	cmp	r6, #8
    1848:	d1c6      	bne.n	17d8 <_sercom_get_async_baud_val+0xb4>
    184a:	2740      	movs	r7, #64	; 0x40
    184c:	e005      	b.n	185a <_sercom_get_async_baud_val+0x136>
    184e:	9a06      	ldr	r2, [sp, #24]
    1850:	0356      	lsls	r6, r2, #13
    1852:	431e      	orrs	r6, r3
    1854:	2700      	movs	r7, #0
    1856:	9b09      	ldr	r3, [sp, #36]	; 0x24
    1858:	801e      	strh	r6, [r3, #0]
    185a:	1c38      	adds	r0, r7, #0
    185c:	b00b      	add	sp, #44	; 0x2c
    185e:	bdf0      	pop	{r4, r5, r6, r7, pc}
    1860:	000045cd 	.word	0x000045cd
    1864:	00004575 	.word	0x00004575
    1868:	00001fff 	.word	0x00001fff

0000186c <sercom_set_gclk_generator>:
    186c:	b537      	push	{r0, r1, r2, r4, r5, lr}
    186e:	4b0d      	ldr	r3, [pc, #52]	; (18a4 <sercom_set_gclk_generator+0x38>)
    1870:	1c04      	adds	r4, r0, #0
    1872:	781a      	ldrb	r2, [r3, #0]
    1874:	1c1d      	adds	r5, r3, #0
    1876:	2a00      	cmp	r2, #0
    1878:	d001      	beq.n	187e <sercom_set_gclk_generator+0x12>
    187a:	2900      	cmp	r1, #0
    187c:	d00c      	beq.n	1898 <sercom_set_gclk_generator+0x2c>
    187e:	a901      	add	r1, sp, #4
    1880:	2013      	movs	r0, #19
    1882:	4b09      	ldr	r3, [pc, #36]	; (18a8 <sercom_set_gclk_generator+0x3c>)
    1884:	700c      	strb	r4, [r1, #0]
    1886:	4798      	blx	r3
    1888:	2013      	movs	r0, #19
    188a:	4b08      	ldr	r3, [pc, #32]	; (18ac <sercom_set_gclk_generator+0x40>)
    188c:	4798      	blx	r3
    188e:	2301      	movs	r3, #1
    1890:	706c      	strb	r4, [r5, #1]
    1892:	702b      	strb	r3, [r5, #0]
    1894:	2000      	movs	r0, #0
    1896:	e004      	b.n	18a2 <sercom_set_gclk_generator+0x36>
    1898:	785b      	ldrb	r3, [r3, #1]
    189a:	1c08      	adds	r0, r1, #0
    189c:	42a3      	cmp	r3, r4
    189e:	d000      	beq.n	18a2 <sercom_set_gclk_generator+0x36>
    18a0:	201d      	movs	r0, #29
    18a2:	bd3e      	pop	{r1, r2, r3, r4, r5, pc}
    18a4:	20000651 	.word	0x20000651
    18a8:	00002501 	.word	0x00002501
    18ac:	0000247d 	.word	0x0000247d

000018b0 <_sercom_get_default_pad>:
    18b0:	4a3a      	ldr	r2, [pc, #232]	; (199c <_sercom_get_default_pad+0xec>)
    18b2:	1c03      	adds	r3, r0, #0
    18b4:	b500      	push	{lr}
    18b6:	1c08      	adds	r0, r1, #0
    18b8:	4293      	cmp	r3, r2
    18ba:	d02b      	beq.n	1914 <_sercom_get_default_pad+0x64>
    18bc:	d806      	bhi.n	18cc <_sercom_get_default_pad+0x1c>
    18be:	4a38      	ldr	r2, [pc, #224]	; (19a0 <_sercom_get_default_pad+0xf0>)
    18c0:	4293      	cmp	r3, r2
    18c2:	d00d      	beq.n	18e0 <_sercom_get_default_pad+0x30>
    18c4:	4a37      	ldr	r2, [pc, #220]	; (19a4 <_sercom_get_default_pad+0xf4>)
    18c6:	4293      	cmp	r3, r2
    18c8:	d017      	beq.n	18fa <_sercom_get_default_pad+0x4a>
    18ca:	e057      	b.n	197c <_sercom_get_default_pad+0xcc>
    18cc:	4a36      	ldr	r2, [pc, #216]	; (19a8 <_sercom_get_default_pad+0xf8>)
    18ce:	4293      	cmp	r3, r2
    18d0:	d03a      	beq.n	1948 <_sercom_get_default_pad+0x98>
    18d2:	4a36      	ldr	r2, [pc, #216]	; (19ac <_sercom_get_default_pad+0xfc>)
    18d4:	4293      	cmp	r3, r2
    18d6:	d044      	beq.n	1962 <_sercom_get_default_pad+0xb2>
    18d8:	4a35      	ldr	r2, [pc, #212]	; (19b0 <_sercom_get_default_pad+0x100>)
    18da:	4293      	cmp	r3, r2
    18dc:	d14e      	bne.n	197c <_sercom_get_default_pad+0xcc>
    18de:	e026      	b.n	192e <_sercom_get_default_pad+0x7e>
    18e0:	2300      	movs	r3, #0
    18e2:	2903      	cmp	r1, #3
    18e4:	d857      	bhi.n	1996 <_sercom_get_default_pad+0xe6>
    18e6:	f002 fcb9 	bl	425c <__gnu_thumb1_case_uqi>
    18ea:	024b      	.short	0x024b
    18ec:	0604      	.short	0x0604
    18ee:	4b31      	ldr	r3, [pc, #196]	; (19b4 <_sercom_get_default_pad+0x104>)
    18f0:	e051      	b.n	1996 <_sercom_get_default_pad+0xe6>
    18f2:	4b31      	ldr	r3, [pc, #196]	; (19b8 <_sercom_get_default_pad+0x108>)
    18f4:	e04f      	b.n	1996 <_sercom_get_default_pad+0xe6>
    18f6:	4b31      	ldr	r3, [pc, #196]	; (19bc <_sercom_get_default_pad+0x10c>)
    18f8:	e04d      	b.n	1996 <_sercom_get_default_pad+0xe6>
    18fa:	2300      	movs	r3, #0
    18fc:	2903      	cmp	r1, #3
    18fe:	d84a      	bhi.n	1996 <_sercom_get_default_pad+0xe6>
    1900:	f002 fcac 	bl	425c <__gnu_thumb1_case_uqi>
    1904:	06040240 	.word	0x06040240
    1908:	4b2d      	ldr	r3, [pc, #180]	; (19c0 <_sercom_get_default_pad+0x110>)
    190a:	e044      	b.n	1996 <_sercom_get_default_pad+0xe6>
    190c:	4b2d      	ldr	r3, [pc, #180]	; (19c4 <_sercom_get_default_pad+0x114>)
    190e:	e042      	b.n	1996 <_sercom_get_default_pad+0xe6>
    1910:	4b2d      	ldr	r3, [pc, #180]	; (19c8 <_sercom_get_default_pad+0x118>)
    1912:	e040      	b.n	1996 <_sercom_get_default_pad+0xe6>
    1914:	2300      	movs	r3, #0
    1916:	2903      	cmp	r1, #3
    1918:	d83d      	bhi.n	1996 <_sercom_get_default_pad+0xe6>
    191a:	f002 fc9f 	bl	425c <__gnu_thumb1_case_uqi>
    191e:	0235      	.short	0x0235
    1920:	0604      	.short	0x0604
    1922:	4b2a      	ldr	r3, [pc, #168]	; (19cc <_sercom_get_default_pad+0x11c>)
    1924:	e037      	b.n	1996 <_sercom_get_default_pad+0xe6>
    1926:	4b2a      	ldr	r3, [pc, #168]	; (19d0 <_sercom_get_default_pad+0x120>)
    1928:	e035      	b.n	1996 <_sercom_get_default_pad+0xe6>
    192a:	4b2a      	ldr	r3, [pc, #168]	; (19d4 <_sercom_get_default_pad+0x124>)
    192c:	e033      	b.n	1996 <_sercom_get_default_pad+0xe6>
    192e:	2300      	movs	r3, #0
    1930:	2903      	cmp	r1, #3
    1932:	d830      	bhi.n	1996 <_sercom_get_default_pad+0xe6>
    1934:	f002 fc92 	bl	425c <__gnu_thumb1_case_uqi>
    1938:	0604022a 	.word	0x0604022a
    193c:	4b26      	ldr	r3, [pc, #152]	; (19d8 <_sercom_get_default_pad+0x128>)
    193e:	e02a      	b.n	1996 <_sercom_get_default_pad+0xe6>
    1940:	4b26      	ldr	r3, [pc, #152]	; (19dc <_sercom_get_default_pad+0x12c>)
    1942:	e028      	b.n	1996 <_sercom_get_default_pad+0xe6>
    1944:	4b26      	ldr	r3, [pc, #152]	; (19e0 <_sercom_get_default_pad+0x130>)
    1946:	e026      	b.n	1996 <_sercom_get_default_pad+0xe6>
    1948:	2300      	movs	r3, #0
    194a:	2903      	cmp	r1, #3
    194c:	d823      	bhi.n	1996 <_sercom_get_default_pad+0xe6>
    194e:	f002 fc85 	bl	425c <__gnu_thumb1_case_uqi>
    1952:	021f      	.short	0x021f
    1954:	0604      	.short	0x0604
    1956:	4b23      	ldr	r3, [pc, #140]	; (19e4 <_sercom_get_default_pad+0x134>)
    1958:	e01d      	b.n	1996 <_sercom_get_default_pad+0xe6>
    195a:	4b23      	ldr	r3, [pc, #140]	; (19e8 <_sercom_get_default_pad+0x138>)
    195c:	e01b      	b.n	1996 <_sercom_get_default_pad+0xe6>
    195e:	4b23      	ldr	r3, [pc, #140]	; (19ec <_sercom_get_default_pad+0x13c>)
    1960:	e019      	b.n	1996 <_sercom_get_default_pad+0xe6>
    1962:	2300      	movs	r3, #0
    1964:	2903      	cmp	r1, #3
    1966:	d816      	bhi.n	1996 <_sercom_get_default_pad+0xe6>
    1968:	f002 fc78 	bl	425c <__gnu_thumb1_case_uqi>
    196c:	06040214 	.word	0x06040214
    1970:	4b1f      	ldr	r3, [pc, #124]	; (19f0 <_sercom_get_default_pad+0x140>)
    1972:	e010      	b.n	1996 <_sercom_get_default_pad+0xe6>
    1974:	4b1f      	ldr	r3, [pc, #124]	; (19f4 <_sercom_get_default_pad+0x144>)
    1976:	e00e      	b.n	1996 <_sercom_get_default_pad+0xe6>
    1978:	4b1f      	ldr	r3, [pc, #124]	; (19f8 <_sercom_get_default_pad+0x148>)
    197a:	e00c      	b.n	1996 <_sercom_get_default_pad+0xe6>
    197c:	2300      	movs	r3, #0
    197e:	e00a      	b.n	1996 <_sercom_get_default_pad+0xe6>
    1980:	4b1e      	ldr	r3, [pc, #120]	; (19fc <_sercom_get_default_pad+0x14c>)
    1982:	e008      	b.n	1996 <_sercom_get_default_pad+0xe6>
    1984:	2303      	movs	r3, #3
    1986:	e006      	b.n	1996 <_sercom_get_default_pad+0xe6>
    1988:	4b1d      	ldr	r3, [pc, #116]	; (1a00 <_sercom_get_default_pad+0x150>)
    198a:	e004      	b.n	1996 <_sercom_get_default_pad+0xe6>
    198c:	4b1d      	ldr	r3, [pc, #116]	; (1a04 <_sercom_get_default_pad+0x154>)
    198e:	e002      	b.n	1996 <_sercom_get_default_pad+0xe6>
    1990:	4b1d      	ldr	r3, [pc, #116]	; (1a08 <_sercom_get_default_pad+0x158>)
    1992:	e000      	b.n	1996 <_sercom_get_default_pad+0xe6>
    1994:	4b1d      	ldr	r3, [pc, #116]	; (1a0c <_sercom_get_default_pad+0x15c>)
    1996:	1c18      	adds	r0, r3, #0
    1998:	bd00      	pop	{pc}
    199a:	46c0      	nop			; (mov r8, r8)
    199c:	42001000 	.word	0x42001000
    19a0:	42000800 	.word	0x42000800
    19a4:	42000c00 	.word	0x42000c00
    19a8:	42001800 	.word	0x42001800
    19ac:	42001c00 	.word	0x42001c00
    19b0:	42001400 	.word	0x42001400
    19b4:	00050003 	.word	0x00050003
    19b8:	00060003 	.word	0x00060003
    19bc:	00070003 	.word	0x00070003
    19c0:	00010003 	.word	0x00010003
    19c4:	001e0003 	.word	0x001e0003
    19c8:	001f0003 	.word	0x001f0003
    19cc:	00090003 	.word	0x00090003
    19d0:	000a0003 	.word	0x000a0003
    19d4:	000b0003 	.word	0x000b0003
    19d8:	00110003 	.word	0x00110003
    19dc:	00120003 	.word	0x00120003
    19e0:	00130003 	.word	0x00130003
    19e4:	000d0003 	.word	0x000d0003
    19e8:	000e0003 	.word	0x000e0003
    19ec:	000f0003 	.word	0x000f0003
    19f0:	00170003 	.word	0x00170003
    19f4:	00180003 	.word	0x00180003
    19f8:	00190003 	.word	0x00190003
    19fc:	00040003 	.word	0x00040003
    1a00:	00080003 	.word	0x00080003
    1a04:	00100003 	.word	0x00100003
    1a08:	000c0003 	.word	0x000c0003
    1a0c:	00160003 	.word	0x00160003

00001a10 <_sercom_get_sercom_inst_index>:
    1a10:	b570      	push	{r4, r5, r6, lr}
    1a12:	b086      	sub	sp, #24
    1a14:	4669      	mov	r1, sp
    1a16:	4b09      	ldr	r3, [pc, #36]	; (1a3c <_sercom_get_sercom_inst_index+0x2c>)
    1a18:	466a      	mov	r2, sp
    1a1a:	cb70      	ldmia	r3!, {r4, r5, r6}
    1a1c:	c170      	stmia	r1!, {r4, r5, r6}
    1a1e:	cb70      	ldmia	r3!, {r4, r5, r6}
    1a20:	c170      	stmia	r1!, {r4, r5, r6}
    1a22:	2300      	movs	r3, #0
    1a24:	0099      	lsls	r1, r3, #2
    1a26:	5851      	ldr	r1, [r2, r1]
    1a28:	4288      	cmp	r0, r1
    1a2a:	d101      	bne.n	1a30 <_sercom_get_sercom_inst_index+0x20>
    1a2c:	b2d8      	uxtb	r0, r3
    1a2e:	e003      	b.n	1a38 <_sercom_get_sercom_inst_index+0x28>
    1a30:	3301      	adds	r3, #1
    1a32:	2b06      	cmp	r3, #6
    1a34:	d1f6      	bne.n	1a24 <_sercom_get_sercom_inst_index+0x14>
    1a36:	2000      	movs	r0, #0
    1a38:	b006      	add	sp, #24
    1a3a:	bd70      	pop	{r4, r5, r6, pc}
    1a3c:	000046e0 	.word	0x000046e0

00001a40 <_sercom_default_handler>:
    1a40:	4770      	bx	lr
	...

00001a44 <_sercom_set_handler>:
    1a44:	b570      	push	{r4, r5, r6, lr}
    1a46:	4a0a      	ldr	r2, [pc, #40]	; (1a70 <_sercom_set_handler+0x2c>)
    1a48:	4d0a      	ldr	r5, [pc, #40]	; (1a74 <_sercom_set_handler+0x30>)
    1a4a:	7813      	ldrb	r3, [r2, #0]
    1a4c:	1c14      	adds	r4, r2, #0
    1a4e:	2b00      	cmp	r3, #0
    1a50:	d10a      	bne.n	1a68 <_sercom_set_handler+0x24>
    1a52:	2600      	movs	r6, #0
    1a54:	4a08      	ldr	r2, [pc, #32]	; (1a78 <_sercom_set_handler+0x34>)
    1a56:	50ea      	str	r2, [r5, r3]
    1a58:	4a08      	ldr	r2, [pc, #32]	; (1a7c <_sercom_set_handler+0x38>)
    1a5a:	189a      	adds	r2, r3, r2
    1a5c:	3304      	adds	r3, #4
    1a5e:	6016      	str	r6, [r2, #0]
    1a60:	2b18      	cmp	r3, #24
    1a62:	d1f6      	bne.n	1a52 <_sercom_set_handler+0xe>
    1a64:	3b17      	subs	r3, #23
    1a66:	7023      	strb	r3, [r4, #0]
    1a68:	0080      	lsls	r0, r0, #2
    1a6a:	5029      	str	r1, [r5, r0]
    1a6c:	bd70      	pop	{r4, r5, r6, pc}
    1a6e:	46c0      	nop			; (mov r8, r8)
    1a70:	20000653 	.word	0x20000653
    1a74:	20000654 	.word	0x20000654
    1a78:	00001a41 	.word	0x00001a41
    1a7c:	20000788 	.word	0x20000788

00001a80 <_sercom_get_interrupt_vector>:
    1a80:	b513      	push	{r0, r1, r4, lr}
    1a82:	1c04      	adds	r4, r0, #0
    1a84:	4905      	ldr	r1, [pc, #20]	; (1a9c <_sercom_get_interrupt_vector+0x1c>)
    1a86:	2206      	movs	r2, #6
    1a88:	4668      	mov	r0, sp
    1a8a:	4b05      	ldr	r3, [pc, #20]	; (1aa0 <_sercom_get_interrupt_vector+0x20>)
    1a8c:	4798      	blx	r3
    1a8e:	1c20      	adds	r0, r4, #0
    1a90:	4b04      	ldr	r3, [pc, #16]	; (1aa4 <_sercom_get_interrupt_vector+0x24>)
    1a92:	4798      	blx	r3
    1a94:	466b      	mov	r3, sp
    1a96:	5618      	ldrsb	r0, [r3, r0]
    1a98:	bd16      	pop	{r1, r2, r4, pc}
    1a9a:	46c0      	nop			; (mov r8, r8)
    1a9c:	000046f8 	.word	0x000046f8
    1aa0:	0000466d 	.word	0x0000466d
    1aa4:	00001a11 	.word	0x00001a11

00001aa8 <SERCOM0_Handler>:
    1aa8:	b508      	push	{r3, lr}
    1aaa:	4b02      	ldr	r3, [pc, #8]	; (1ab4 <SERCOM0_Handler+0xc>)
    1aac:	2000      	movs	r0, #0
    1aae:	681b      	ldr	r3, [r3, #0]
    1ab0:	4798      	blx	r3
    1ab2:	bd08      	pop	{r3, pc}
    1ab4:	20000654 	.word	0x20000654

00001ab8 <SERCOM1_Handler>:
    1ab8:	b508      	push	{r3, lr}
    1aba:	4b02      	ldr	r3, [pc, #8]	; (1ac4 <SERCOM1_Handler+0xc>)
    1abc:	2001      	movs	r0, #1
    1abe:	685b      	ldr	r3, [r3, #4]
    1ac0:	4798      	blx	r3
    1ac2:	bd08      	pop	{r3, pc}
    1ac4:	20000654 	.word	0x20000654

00001ac8 <SERCOM2_Handler>:
    1ac8:	b508      	push	{r3, lr}
    1aca:	4b02      	ldr	r3, [pc, #8]	; (1ad4 <SERCOM2_Handler+0xc>)
    1acc:	2002      	movs	r0, #2
    1ace:	689b      	ldr	r3, [r3, #8]
    1ad0:	4798      	blx	r3
    1ad2:	bd08      	pop	{r3, pc}
    1ad4:	20000654 	.word	0x20000654

00001ad8 <SERCOM3_Handler>:
    1ad8:	b508      	push	{r3, lr}
    1ada:	4b02      	ldr	r3, [pc, #8]	; (1ae4 <SERCOM3_Handler+0xc>)
    1adc:	2003      	movs	r0, #3
    1ade:	68db      	ldr	r3, [r3, #12]
    1ae0:	4798      	blx	r3
    1ae2:	bd08      	pop	{r3, pc}
    1ae4:	20000654 	.word	0x20000654

00001ae8 <SERCOM4_Handler>:
    1ae8:	b508      	push	{r3, lr}
    1aea:	4b02      	ldr	r3, [pc, #8]	; (1af4 <SERCOM4_Handler+0xc>)
    1aec:	2004      	movs	r0, #4
    1aee:	691b      	ldr	r3, [r3, #16]
    1af0:	4798      	blx	r3
    1af2:	bd08      	pop	{r3, pc}
    1af4:	20000654 	.word	0x20000654

00001af8 <SERCOM5_Handler>:
    1af8:	b508      	push	{r3, lr}
    1afa:	4b02      	ldr	r3, [pc, #8]	; (1b04 <SERCOM5_Handler+0xc>)
    1afc:	2005      	movs	r0, #5
    1afe:	695b      	ldr	r3, [r3, #20]
    1b00:	4798      	blx	r3
    1b02:	bd08      	pop	{r3, pc}
    1b04:	20000654 	.word	0x20000654

00001b08 <_usart_wait_for_sync>:
    1b08:	6802      	ldr	r2, [r0, #0]
    1b0a:	69d3      	ldr	r3, [r2, #28]
    1b0c:	2b00      	cmp	r3, #0
    1b0e:	d1fc      	bne.n	1b0a <_usart_wait_for_sync+0x2>
    1b10:	4770      	bx	lr
	...

00001b14 <usart_init>:
    1b14:	b5f0      	push	{r4, r5, r6, r7, lr}
    1b16:	1c06      	adds	r6, r0, #0
    1b18:	b093      	sub	sp, #76	; 0x4c
    1b1a:	4ba5      	ldr	r3, [pc, #660]	; (1db0 <usart_init+0x29c>)
    1b1c:	6031      	str	r1, [r6, #0]
    1b1e:	1c08      	adds	r0, r1, #0
    1b20:	1c14      	adds	r4, r2, #0
    1b22:	9105      	str	r1, [sp, #20]
    1b24:	2701      	movs	r7, #1
    1b26:	4798      	blx	r3
    1b28:	2205      	movs	r2, #5
    1b2a:	9b05      	ldr	r3, [sp, #20]
    1b2c:	9202      	str	r2, [sp, #8]
    1b2e:	681b      	ldr	r3, [r3, #0]
    1b30:	423b      	tst	r3, r7
    1b32:	d000      	beq.n	1b36 <usart_init+0x22>
    1b34:	e139      	b.n	1daa <usart_init+0x296>
    1b36:	9b05      	ldr	r3, [sp, #20]
    1b38:	681d      	ldr	r5, [r3, #0]
    1b3a:	2302      	movs	r3, #2
    1b3c:	401d      	ands	r5, r3
    1b3e:	331a      	adds	r3, #26
    1b40:	9302      	str	r3, [sp, #8]
    1b42:	2d00      	cmp	r5, #0
    1b44:	d000      	beq.n	1b48 <usart_init+0x34>
    1b46:	e130      	b.n	1daa <usart_init+0x296>
    1b48:	1c3a      	adds	r2, r7, #0
    1b4a:	499a      	ldr	r1, [pc, #616]	; (1db4 <usart_init+0x2a0>)
    1b4c:	6a0b      	ldr	r3, [r1, #32]
    1b4e:	469c      	mov	ip, r3
    1b50:	1c83      	adds	r3, r0, #2
    1b52:	409a      	lsls	r2, r3
    1b54:	1c13      	adds	r3, r2, #0
    1b56:	4662      	mov	r2, ip
    1b58:	4313      	orrs	r3, r2
    1b5a:	620b      	str	r3, [r1, #32]
    1b5c:	1c23      	adds	r3, r4, #0
    1b5e:	332d      	adds	r3, #45	; 0x2d
    1b60:	9303      	str	r3, [sp, #12]
    1b62:	781b      	ldrb	r3, [r3, #0]
    1b64:	a90c      	add	r1, sp, #48	; 0x30
    1b66:	3014      	adds	r0, #20
    1b68:	700b      	strb	r3, [r1, #0]
    1b6a:	b2c3      	uxtb	r3, r0
    1b6c:	1c18      	adds	r0, r3, #0
    1b6e:	9302      	str	r3, [sp, #8]
    1b70:	4b91      	ldr	r3, [pc, #580]	; (1db8 <usart_init+0x2a4>)
    1b72:	4798      	blx	r3
    1b74:	9802      	ldr	r0, [sp, #8]
    1b76:	4b91      	ldr	r3, [pc, #580]	; (1dbc <usart_init+0x2a8>)
    1b78:	4798      	blx	r3
    1b7a:	9b03      	ldr	r3, [sp, #12]
    1b7c:	1c29      	adds	r1, r5, #0
    1b7e:	7818      	ldrb	r0, [r3, #0]
    1b80:	4b8f      	ldr	r3, [pc, #572]	; (1dc0 <usart_init+0x2ac>)
    1b82:	4798      	blx	r3
    1b84:	7ae3      	ldrb	r3, [r4, #11]
    1b86:	7173      	strb	r3, [r6, #5]
    1b88:	1d63      	adds	r3, r4, #5
    1b8a:	7fdb      	ldrb	r3, [r3, #31]
    1b8c:	71b3      	strb	r3, [r6, #6]
    1b8e:	1da3      	adds	r3, r4, #6
    1b90:	7fdb      	ldrb	r3, [r3, #31]
    1b92:	71f3      	strb	r3, [r6, #7]
    1b94:	7ee3      	ldrb	r3, [r4, #27]
    1b96:	7233      	strb	r3, [r6, #8]
    1b98:	7f23      	ldrb	r3, [r4, #28]
    1b9a:	7273      	strb	r3, [r6, #9]
    1b9c:	6833      	ldr	r3, [r6, #0]
    1b9e:	9304      	str	r3, [sp, #16]
    1ba0:	1c18      	adds	r0, r3, #0
    1ba2:	4b83      	ldr	r3, [pc, #524]	; (1db0 <usart_init+0x29c>)
    1ba4:	4798      	blx	r3
    1ba6:	ab0e      	add	r3, sp, #56	; 0x38
    1ba8:	801d      	strh	r5, [r3, #0]
    1baa:	8a23      	ldrh	r3, [r4, #16]
    1bac:	3014      	adds	r0, #20
    1bae:	9303      	str	r3, [sp, #12]
    1bb0:	2380      	movs	r3, #128	; 0x80
    1bb2:	9a03      	ldr	r2, [sp, #12]
    1bb4:	01db      	lsls	r3, r3, #7
    1bb6:	429a      	cmp	r2, r3
    1bb8:	d019      	beq.n	1bee <usart_init+0xda>
    1bba:	d804      	bhi.n	1bc6 <usart_init+0xb2>
    1bbc:	2380      	movs	r3, #128	; 0x80
    1bbe:	019b      	lsls	r3, r3, #6
    1bc0:	429a      	cmp	r2, r3
    1bc2:	d00f      	beq.n	1be4 <usart_init+0xd0>
    1bc4:	e008      	b.n	1bd8 <usart_init+0xc4>
    1bc6:	23c0      	movs	r3, #192	; 0xc0
    1bc8:	9a03      	ldr	r2, [sp, #12]
    1bca:	01db      	lsls	r3, r3, #7
    1bcc:	429a      	cmp	r2, r3
    1bce:	d00b      	beq.n	1be8 <usart_init+0xd4>
    1bd0:	2380      	movs	r3, #128	; 0x80
    1bd2:	021b      	lsls	r3, r3, #8
    1bd4:	429a      	cmp	r2, r3
    1bd6:	d003      	beq.n	1be0 <usart_init+0xcc>
    1bd8:	2310      	movs	r3, #16
    1bda:	9302      	str	r3, [sp, #8]
    1bdc:	2700      	movs	r7, #0
    1bde:	e009      	b.n	1bf4 <usart_init+0xe0>
    1be0:	2303      	movs	r3, #3
    1be2:	e7fa      	b.n	1bda <usart_init+0xc6>
    1be4:	2310      	movs	r3, #16
    1be6:	e000      	b.n	1bea <usart_init+0xd6>
    1be8:	2308      	movs	r3, #8
    1bea:	9302      	str	r3, [sp, #8]
    1bec:	e002      	b.n	1bf4 <usart_init+0xe0>
    1bee:	2308      	movs	r3, #8
    1bf0:	1c2f      	adds	r7, r5, #0
    1bf2:	9302      	str	r3, [sp, #8]
    1bf4:	6823      	ldr	r3, [r4, #0]
    1bf6:	9307      	str	r3, [sp, #28]
    1bf8:	68e3      	ldr	r3, [r4, #12]
    1bfa:	9308      	str	r3, [sp, #32]
    1bfc:	6963      	ldr	r3, [r4, #20]
    1bfe:	9309      	str	r3, [sp, #36]	; 0x24
    1c00:	7e23      	ldrb	r3, [r4, #24]
    1c02:	930a      	str	r3, [sp, #40]	; 0x28
    1c04:	1de3      	adds	r3, r4, #7
    1c06:	7fdb      	ldrb	r3, [r3, #31]
    1c08:	930b      	str	r3, [sp, #44]	; 0x2c
    1c0a:	6863      	ldr	r3, [r4, #4]
    1c0c:	9306      	str	r3, [sp, #24]
    1c0e:	1c23      	adds	r3, r4, #0
    1c10:	9a06      	ldr	r2, [sp, #24]
    1c12:	3308      	adds	r3, #8
    1c14:	2a00      	cmp	r2, #0
    1c16:	d011      	beq.n	1c3c <usart_init+0x128>
    1c18:	2280      	movs	r2, #128	; 0x80
    1c1a:	9906      	ldr	r1, [sp, #24]
    1c1c:	0552      	lsls	r2, r2, #21
    1c1e:	4291      	cmp	r1, r2
    1c20:	d124      	bne.n	1c6c <usart_init+0x158>
    1c22:	7fdb      	ldrb	r3, [r3, #31]
    1c24:	2b00      	cmp	r3, #0
    1c26:	d121      	bne.n	1c6c <usart_init+0x158>
    1c28:	4b66      	ldr	r3, [pc, #408]	; (1dc4 <usart_init+0x2b0>)
    1c2a:	b2c0      	uxtb	r0, r0
    1c2c:	6a25      	ldr	r5, [r4, #32]
    1c2e:	4798      	blx	r3
    1c30:	aa0e      	add	r2, sp, #56	; 0x38
    1c32:	1c01      	adds	r1, r0, #0
    1c34:	4b64      	ldr	r3, [pc, #400]	; (1dc8 <usart_init+0x2b4>)
    1c36:	1c28      	adds	r0, r5, #0
    1c38:	4798      	blx	r3
    1c3a:	e013      	b.n	1c64 <usart_init+0x150>
    1c3c:	7fdb      	ldrb	r3, [r3, #31]
    1c3e:	2b00      	cmp	r3, #0
    1c40:	d004      	beq.n	1c4c <usart_init+0x138>
    1c42:	9b02      	ldr	r3, [sp, #8]
    1c44:	9300      	str	r3, [sp, #0]
    1c46:	6a20      	ldr	r0, [r4, #32]
    1c48:	6aa1      	ldr	r1, [r4, #40]	; 0x28
    1c4a:	e007      	b.n	1c5c <usart_init+0x148>
    1c4c:	4b5d      	ldr	r3, [pc, #372]	; (1dc4 <usart_init+0x2b0>)
    1c4e:	b2c0      	uxtb	r0, r0
    1c50:	6a25      	ldr	r5, [r4, #32]
    1c52:	4798      	blx	r3
    1c54:	1c01      	adds	r1, r0, #0
    1c56:	1c28      	adds	r0, r5, #0
    1c58:	9b02      	ldr	r3, [sp, #8]
    1c5a:	9300      	str	r3, [sp, #0]
    1c5c:	aa0e      	add	r2, sp, #56	; 0x38
    1c5e:	1c3b      	adds	r3, r7, #0
    1c60:	4d5a      	ldr	r5, [pc, #360]	; (1dcc <usart_init+0x2b8>)
    1c62:	47a8      	blx	r5
    1c64:	9002      	str	r0, [sp, #8]
    1c66:	2800      	cmp	r0, #0
    1c68:	d000      	beq.n	1c6c <usart_init+0x158>
    1c6a:	e09e      	b.n	1daa <usart_init+0x296>
    1c6c:	7e63      	ldrb	r3, [r4, #25]
    1c6e:	2b00      	cmp	r3, #0
    1c70:	d002      	beq.n	1c78 <usart_init+0x164>
    1c72:	7ea3      	ldrb	r3, [r4, #26]
    1c74:	9a04      	ldr	r2, [sp, #16]
    1c76:	7393      	strb	r3, [r2, #14]
    1c78:	4f55      	ldr	r7, [pc, #340]	; (1dd0 <usart_init+0x2bc>)
    1c7a:	1c30      	adds	r0, r6, #0
    1c7c:	47b8      	blx	r7
    1c7e:	ab0e      	add	r3, sp, #56	; 0x38
    1c80:	881b      	ldrh	r3, [r3, #0]
    1c82:	9a04      	ldr	r2, [sp, #16]
    1c84:	9d08      	ldr	r5, [sp, #32]
    1c86:	8193      	strh	r3, [r2, #12]
    1c88:	9b07      	ldr	r3, [sp, #28]
    1c8a:	431d      	orrs	r5, r3
    1c8c:	9b09      	ldr	r3, [sp, #36]	; 0x24
    1c8e:	431d      	orrs	r5, r3
    1c90:	9b06      	ldr	r3, [sp, #24]
    1c92:	431d      	orrs	r5, r3
    1c94:	9b03      	ldr	r3, [sp, #12]
    1c96:	431d      	orrs	r5, r3
    1c98:	9b0a      	ldr	r3, [sp, #40]	; 0x28
    1c9a:	021b      	lsls	r3, r3, #8
    1c9c:	431d      	orrs	r5, r3
    1c9e:	9b0b      	ldr	r3, [sp, #44]	; 0x2c
    1ca0:	075b      	lsls	r3, r3, #29
    1ca2:	431d      	orrs	r5, r3
    1ca4:	1c23      	adds	r3, r4, #0
    1ca6:	3308      	adds	r3, #8
    1ca8:	7fdb      	ldrb	r3, [r3, #31]
    1caa:	9702      	str	r7, [sp, #8]
    1cac:	2b00      	cmp	r3, #0
    1cae:	d101      	bne.n	1cb4 <usart_init+0x1a0>
    1cb0:	3304      	adds	r3, #4
    1cb2:	431d      	orrs	r5, r3
    1cb4:	7f27      	ldrb	r7, [r4, #28]
    1cb6:	7e63      	ldrb	r3, [r4, #25]
    1cb8:	027f      	lsls	r7, r7, #9
    1cba:	029b      	lsls	r3, r3, #10
    1cbc:	431f      	orrs	r7, r3
    1cbe:	7f63      	ldrb	r3, [r4, #29]
    1cc0:	021b      	lsls	r3, r3, #8
    1cc2:	431f      	orrs	r7, r3
    1cc4:	1d63      	adds	r3, r4, #5
    1cc6:	7fdb      	ldrb	r3, [r3, #31]
    1cc8:	045b      	lsls	r3, r3, #17
    1cca:	431f      	orrs	r7, r3
    1ccc:	1da3      	adds	r3, r4, #6
    1cce:	7fdb      	ldrb	r3, [r3, #31]
    1cd0:	041b      	lsls	r3, r3, #16
    1cd2:	431f      	orrs	r7, r3
    1cd4:	7ae3      	ldrb	r3, [r4, #11]
    1cd6:	431f      	orrs	r7, r3
    1cd8:	8923      	ldrh	r3, [r4, #8]
    1cda:	2bff      	cmp	r3, #255	; 0xff
    1cdc:	d004      	beq.n	1ce8 <usart_init+0x1d4>
    1cde:	2280      	movs	r2, #128	; 0x80
    1ce0:	0452      	lsls	r2, r2, #17
    1ce2:	4315      	orrs	r5, r2
    1ce4:	431f      	orrs	r7, r3
    1ce6:	e005      	b.n	1cf4 <usart_init+0x1e0>
    1ce8:	7ee3      	ldrb	r3, [r4, #27]
    1cea:	2b00      	cmp	r3, #0
    1cec:	d002      	beq.n	1cf4 <usart_init+0x1e0>
    1cee:	2380      	movs	r3, #128	; 0x80
    1cf0:	04db      	lsls	r3, r3, #19
    1cf2:	431d      	orrs	r5, r3
    1cf4:	1c23      	adds	r3, r4, #0
    1cf6:	332c      	adds	r3, #44	; 0x2c
    1cf8:	781b      	ldrb	r3, [r3, #0]
    1cfa:	2b00      	cmp	r3, #0
    1cfc:	d103      	bne.n	1d06 <usart_init+0x1f2>
    1cfe:	4b35      	ldr	r3, [pc, #212]	; (1dd4 <usart_init+0x2c0>)
    1d00:	789b      	ldrb	r3, [r3, #2]
    1d02:	079b      	lsls	r3, r3, #30
    1d04:	d501      	bpl.n	1d0a <usart_init+0x1f6>
    1d06:	2380      	movs	r3, #128	; 0x80
    1d08:	431d      	orrs	r5, r3
    1d0a:	1c30      	adds	r0, r6, #0
    1d0c:	9b02      	ldr	r3, [sp, #8]
    1d0e:	4798      	blx	r3
    1d10:	9b04      	ldr	r3, [sp, #16]
    1d12:	1c30      	adds	r0, r6, #0
    1d14:	605f      	str	r7, [r3, #4]
    1d16:	9b02      	ldr	r3, [sp, #8]
    1d18:	4798      	blx	r3
    1d1a:	9b04      	ldr	r3, [sp, #16]
    1d1c:	af0e      	add	r7, sp, #56	; 0x38
    1d1e:	601d      	str	r5, [r3, #0]
    1d20:	2300      	movs	r3, #0
    1d22:	ad0d      	add	r5, sp, #52	; 0x34
    1d24:	9302      	str	r3, [sp, #8]
    1d26:	3380      	adds	r3, #128	; 0x80
    1d28:	702b      	strb	r3, [r5, #0]
    1d2a:	466b      	mov	r3, sp
    1d2c:	7a1b      	ldrb	r3, [r3, #8]
    1d2e:	706b      	strb	r3, [r5, #1]
    1d30:	466b      	mov	r3, sp
    1d32:	7a1b      	ldrb	r3, [r3, #8]
    1d34:	70eb      	strb	r3, [r5, #3]
    1d36:	466b      	mov	r3, sp
    1d38:	7a1b      	ldrb	r3, [r3, #8]
    1d3a:	70ab      	strb	r3, [r5, #2]
    1d3c:	6b23      	ldr	r3, [r4, #48]	; 0x30
    1d3e:	930e      	str	r3, [sp, #56]	; 0x38
    1d40:	6b63      	ldr	r3, [r4, #52]	; 0x34
    1d42:	607b      	str	r3, [r7, #4]
    1d44:	6ba3      	ldr	r3, [r4, #56]	; 0x38
    1d46:	60bb      	str	r3, [r7, #8]
    1d48:	6be3      	ldr	r3, [r4, #60]	; 0x3c
    1d4a:	2400      	movs	r4, #0
    1d4c:	60fb      	str	r3, [r7, #12]
    1d4e:	00a3      	lsls	r3, r4, #2
    1d50:	58f8      	ldr	r0, [r7, r3]
    1d52:	b2e1      	uxtb	r1, r4
    1d54:	2800      	cmp	r0, #0
    1d56:	d102      	bne.n	1d5e <usart_init+0x24a>
    1d58:	9805      	ldr	r0, [sp, #20]
    1d5a:	4b1f      	ldr	r3, [pc, #124]	; (1dd8 <usart_init+0x2c4>)
    1d5c:	4798      	blx	r3
    1d5e:	1c43      	adds	r3, r0, #1
    1d60:	d005      	beq.n	1d6e <usart_init+0x25a>
    1d62:	7028      	strb	r0, [r5, #0]
    1d64:	0c00      	lsrs	r0, r0, #16
    1d66:	b2c0      	uxtb	r0, r0
    1d68:	1c29      	adds	r1, r5, #0
    1d6a:	4b1c      	ldr	r3, [pc, #112]	; (1ddc <usart_init+0x2c8>)
    1d6c:	4798      	blx	r3
    1d6e:	3401      	adds	r4, #1
    1d70:	2c04      	cmp	r4, #4
    1d72:	d1ec      	bne.n	1d4e <usart_init+0x23a>
    1d74:	1c32      	adds	r2, r6, #0
    1d76:	2300      	movs	r3, #0
    1d78:	3230      	adds	r2, #48	; 0x30
    1d7a:	85f3      	strh	r3, [r6, #46]	; 0x2e
    1d7c:	60f3      	str	r3, [r6, #12]
    1d7e:	6133      	str	r3, [r6, #16]
    1d80:	6173      	str	r3, [r6, #20]
    1d82:	61b3      	str	r3, [r6, #24]
    1d84:	61f3      	str	r3, [r6, #28]
    1d86:	6233      	str	r3, [r6, #32]
    1d88:	62b3      	str	r3, [r6, #40]	; 0x28
    1d8a:	6273      	str	r3, [r6, #36]	; 0x24
    1d8c:	85b3      	strh	r3, [r6, #44]	; 0x2c
    1d8e:	7093      	strb	r3, [r2, #2]
    1d90:	7013      	strb	r3, [r2, #0]
    1d92:	7053      	strb	r3, [r2, #1]
    1d94:	70d3      	strb	r3, [r2, #3]
    1d96:	6830      	ldr	r0, [r6, #0]
    1d98:	4b05      	ldr	r3, [pc, #20]	; (1db0 <usart_init+0x29c>)
    1d9a:	4798      	blx	r3
    1d9c:	1c04      	adds	r4, r0, #0
    1d9e:	4b10      	ldr	r3, [pc, #64]	; (1de0 <usart_init+0x2cc>)
    1da0:	4910      	ldr	r1, [pc, #64]	; (1de4 <usart_init+0x2d0>)
    1da2:	4798      	blx	r3
    1da4:	4b10      	ldr	r3, [pc, #64]	; (1de8 <usart_init+0x2d4>)
    1da6:	00a4      	lsls	r4, r4, #2
    1da8:	50e6      	str	r6, [r4, r3]
    1daa:	9802      	ldr	r0, [sp, #8]
    1dac:	b013      	add	sp, #76	; 0x4c
    1dae:	bdf0      	pop	{r4, r5, r6, r7, pc}
    1db0:	00001a11 	.word	0x00001a11
    1db4:	40000400 	.word	0x40000400
    1db8:	00002501 	.word	0x00002501
    1dbc:	0000247d 	.word	0x0000247d
    1dc0:	0000186d 	.word	0x0000186d
    1dc4:	0000251d 	.word	0x0000251d
    1dc8:	000016fd 	.word	0x000016fd
    1dcc:	00001725 	.word	0x00001725
    1dd0:	00001b09 	.word	0x00001b09
    1dd4:	41002000 	.word	0x41002000
    1dd8:	000018b1 	.word	0x000018b1
    1ddc:	000025d5 	.word	0x000025d5
    1de0:	00001a45 	.word	0x00001a45
    1de4:	00001e75 	.word	0x00001e75
    1de8:	20000788 	.word	0x20000788

00001dec <_usart_read_buffer>:
    1dec:	b5f8      	push	{r3, r4, r5, r6, r7, lr}
    1dee:	1c04      	adds	r4, r0, #0
    1df0:	4b10      	ldr	r3, [pc, #64]	; (1e34 <_usart_read_buffer+0x48>)
    1df2:	1c17      	adds	r7, r2, #0
    1df4:	1c0e      	adds	r6, r1, #0
    1df6:	6805      	ldr	r5, [r0, #0]
    1df8:	4798      	blx	r3
    1dfa:	8da2      	ldrh	r2, [r4, #44]	; 0x2c
    1dfc:	4b0e      	ldr	r3, [pc, #56]	; (1e38 <_usart_read_buffer+0x4c>)
    1dfe:	2a00      	cmp	r2, #0
    1e00:	d002      	beq.n	1e08 <_usart_read_buffer+0x1c>
    1e02:	4798      	blx	r3
    1e04:	2005      	movs	r0, #5
    1e06:	e013      	b.n	1e30 <_usart_read_buffer+0x44>
    1e08:	85a7      	strh	r7, [r4, #44]	; 0x2c
    1e0a:	4798      	blx	r3
    1e0c:	1c23      	adds	r3, r4, #0
    1e0e:	2205      	movs	r2, #5
    1e10:	3332      	adds	r3, #50	; 0x32
    1e12:	6266      	str	r6, [r4, #36]	; 0x24
    1e14:	701a      	strb	r2, [r3, #0]
    1e16:	2304      	movs	r3, #4
    1e18:	75ab      	strb	r3, [r5, #22]
    1e1a:	7a23      	ldrb	r3, [r4, #8]
    1e1c:	2b00      	cmp	r3, #0
    1e1e:	d001      	beq.n	1e24 <_usart_read_buffer+0x38>
    1e20:	2320      	movs	r3, #32
    1e22:	75ab      	strb	r3, [r5, #22]
    1e24:	2000      	movs	r0, #0
    1e26:	7a63      	ldrb	r3, [r4, #9]
    1e28:	4283      	cmp	r3, r0
    1e2a:	d001      	beq.n	1e30 <_usart_read_buffer+0x44>
    1e2c:	2308      	movs	r3, #8
    1e2e:	75ab      	strb	r3, [r5, #22]
    1e30:	bdf8      	pop	{r3, r4, r5, r6, r7, pc}
    1e32:	46c0      	nop			; (mov r8, r8)
    1e34:	0000147d 	.word	0x0000147d
    1e38:	000014b1 	.word	0x000014b1

00001e3c <usart_register_callback>:
    1e3c:	1c93      	adds	r3, r2, #2
    1e3e:	009b      	lsls	r3, r3, #2
    1e40:	18c3      	adds	r3, r0, r3
    1e42:	6059      	str	r1, [r3, #4]
    1e44:	2301      	movs	r3, #1
    1e46:	4093      	lsls	r3, r2
    1e48:	1c1a      	adds	r2, r3, #0
    1e4a:	3030      	adds	r0, #48	; 0x30
    1e4c:	7803      	ldrb	r3, [r0, #0]
    1e4e:	431a      	orrs	r2, r3
    1e50:	7002      	strb	r2, [r0, #0]
    1e52:	4770      	bx	lr

00001e54 <usart_read_buffer_job>:
    1e54:	1c03      	adds	r3, r0, #0
    1e56:	b510      	push	{r4, lr}
    1e58:	2017      	movs	r0, #23
    1e5a:	2a00      	cmp	r2, #0
    1e5c:	d006      	beq.n	1e6c <usart_read_buffer_job+0x18>
    1e5e:	799c      	ldrb	r4, [r3, #6]
    1e60:	3005      	adds	r0, #5
    1e62:	2c00      	cmp	r4, #0
    1e64:	d002      	beq.n	1e6c <usart_read_buffer_job+0x18>
    1e66:	1c18      	adds	r0, r3, #0
    1e68:	4b01      	ldr	r3, [pc, #4]	; (1e70 <usart_read_buffer_job+0x1c>)
    1e6a:	4798      	blx	r3
    1e6c:	bd10      	pop	{r4, pc}
    1e6e:	46c0      	nop			; (mov r8, r8)
    1e70:	00001ded 	.word	0x00001ded

00001e74 <_usart_interrupt_handler>:
    1e74:	b5f8      	push	{r3, r4, r5, r6, r7, lr}
    1e76:	4b57      	ldr	r3, [pc, #348]	; (1fd4 <_usart_interrupt_handler+0x160>)
    1e78:	0080      	lsls	r0, r0, #2
    1e7a:	58c4      	ldr	r4, [r0, r3]
    1e7c:	6825      	ldr	r5, [r4, #0]
    1e7e:	69eb      	ldr	r3, [r5, #28]
    1e80:	2b00      	cmp	r3, #0
    1e82:	d1fc      	bne.n	1e7e <_usart_interrupt_handler+0xa>
    1e84:	7e2f      	ldrb	r7, [r5, #24]
    1e86:	7dab      	ldrb	r3, [r5, #22]
    1e88:	401f      	ands	r7, r3
    1e8a:	1c23      	adds	r3, r4, #0
    1e8c:	3331      	adds	r3, #49	; 0x31
    1e8e:	781a      	ldrb	r2, [r3, #0]
    1e90:	3b01      	subs	r3, #1
    1e92:	781e      	ldrb	r6, [r3, #0]
    1e94:	2301      	movs	r3, #1
    1e96:	4016      	ands	r6, r2
    1e98:	421f      	tst	r7, r3
    1e9a:	d020      	beq.n	1ede <_usart_interrupt_handler+0x6a>
    1e9c:	8de2      	ldrh	r2, [r4, #46]	; 0x2e
    1e9e:	2a00      	cmp	r2, #0
    1ea0:	d01c      	beq.n	1edc <_usart_interrupt_handler+0x68>
    1ea2:	6aa1      	ldr	r1, [r4, #40]	; 0x28
    1ea4:	780b      	ldrb	r3, [r1, #0]
    1ea6:	b2da      	uxtb	r2, r3
    1ea8:	1c4b      	adds	r3, r1, #1
    1eaa:	62a3      	str	r3, [r4, #40]	; 0x28
    1eac:	7963      	ldrb	r3, [r4, #5]
    1eae:	2b01      	cmp	r3, #1
    1eb0:	d001      	beq.n	1eb6 <_usart_interrupt_handler+0x42>
    1eb2:	b293      	uxth	r3, r2
    1eb4:	e004      	b.n	1ec0 <_usart_interrupt_handler+0x4c>
    1eb6:	784b      	ldrb	r3, [r1, #1]
    1eb8:	3102      	adds	r1, #2
    1eba:	021b      	lsls	r3, r3, #8
    1ebc:	4313      	orrs	r3, r2
    1ebe:	62a1      	str	r1, [r4, #40]	; 0x28
    1ec0:	05db      	lsls	r3, r3, #23
    1ec2:	0ddb      	lsrs	r3, r3, #23
    1ec4:	852b      	strh	r3, [r5, #40]	; 0x28
    1ec6:	8de3      	ldrh	r3, [r4, #46]	; 0x2e
    1ec8:	3b01      	subs	r3, #1
    1eca:	b29b      	uxth	r3, r3
    1ecc:	85e3      	strh	r3, [r4, #46]	; 0x2e
    1ece:	2b00      	cmp	r3, #0
    1ed0:	d105      	bne.n	1ede <_usart_interrupt_handler+0x6a>
    1ed2:	3301      	adds	r3, #1
    1ed4:	752b      	strb	r3, [r5, #20]
    1ed6:	3301      	adds	r3, #1
    1ed8:	75ab      	strb	r3, [r5, #22]
    1eda:	e000      	b.n	1ede <_usart_interrupt_handler+0x6a>
    1edc:	752b      	strb	r3, [r5, #20]
    1ede:	2302      	movs	r3, #2
    1ee0:	421f      	tst	r7, r3
    1ee2:	d009      	beq.n	1ef8 <_usart_interrupt_handler+0x84>
    1ee4:	752b      	strb	r3, [r5, #20]
    1ee6:	1c23      	adds	r3, r4, #0
    1ee8:	2200      	movs	r2, #0
    1eea:	3333      	adds	r3, #51	; 0x33
    1eec:	701a      	strb	r2, [r3, #0]
    1eee:	07f3      	lsls	r3, r6, #31
    1ef0:	d502      	bpl.n	1ef8 <_usart_interrupt_handler+0x84>
    1ef2:	1c20      	adds	r0, r4, #0
    1ef4:	68e3      	ldr	r3, [r4, #12]
    1ef6:	4798      	blx	r3
    1ef8:	2304      	movs	r3, #4
    1efa:	421f      	tst	r7, r3
    1efc:	d04b      	beq.n	1f96 <_usart_interrupt_handler+0x122>
    1efe:	8da2      	ldrh	r2, [r4, #44]	; 0x2c
    1f00:	2a00      	cmp	r2, #0
    1f02:	d047      	beq.n	1f94 <_usart_interrupt_handler+0x120>
    1f04:	8b6b      	ldrh	r3, [r5, #26]
    1f06:	b2db      	uxtb	r3, r3
    1f08:	071a      	lsls	r2, r3, #28
    1f0a:	d401      	bmi.n	1f10 <_usart_interrupt_handler+0x9c>
    1f0c:	223f      	movs	r2, #63	; 0x3f
    1f0e:	e000      	b.n	1f12 <_usart_interrupt_handler+0x9e>
    1f10:	2237      	movs	r2, #55	; 0x37
    1f12:	4013      	ands	r3, r2
    1f14:	d01c      	beq.n	1f50 <_usart_interrupt_handler+0xdc>
    1f16:	2202      	movs	r2, #2
    1f18:	211a      	movs	r1, #26
    1f1a:	4213      	tst	r3, r2
    1f1c:	d10f      	bne.n	1f3e <_usart_interrupt_handler+0xca>
    1f1e:	2204      	movs	r2, #4
    1f20:	211e      	movs	r1, #30
    1f22:	4213      	tst	r3, r2
    1f24:	d10b      	bne.n	1f3e <_usart_interrupt_handler+0xca>
    1f26:	2201      	movs	r2, #1
    1f28:	2113      	movs	r1, #19
    1f2a:	4213      	tst	r3, r2
    1f2c:	d107      	bne.n	1f3e <_usart_interrupt_handler+0xca>
    1f2e:	2210      	movs	r2, #16
    1f30:	2142      	movs	r1, #66	; 0x42
    1f32:	4213      	tst	r3, r2
    1f34:	d103      	bne.n	1f3e <_usart_interrupt_handler+0xca>
    1f36:	2220      	movs	r2, #32
    1f38:	4213      	tst	r3, r2
    1f3a:	d004      	beq.n	1f46 <_usart_interrupt_handler+0xd2>
    1f3c:	2141      	movs	r1, #65	; 0x41
    1f3e:	1c23      	adds	r3, r4, #0
    1f40:	3332      	adds	r3, #50	; 0x32
    1f42:	7019      	strb	r1, [r3, #0]
    1f44:	836a      	strh	r2, [r5, #26]
    1f46:	0773      	lsls	r3, r6, #29
    1f48:	d525      	bpl.n	1f96 <_usart_interrupt_handler+0x122>
    1f4a:	1c20      	adds	r0, r4, #0
    1f4c:	6963      	ldr	r3, [r4, #20]
    1f4e:	e01f      	b.n	1f90 <_usart_interrupt_handler+0x11c>
    1f50:	8d2b      	ldrh	r3, [r5, #40]	; 0x28
    1f52:	6a61      	ldr	r1, [r4, #36]	; 0x24
    1f54:	05db      	lsls	r3, r3, #23
    1f56:	0ddb      	lsrs	r3, r3, #23
    1f58:	b2da      	uxtb	r2, r3
    1f5a:	700a      	strb	r2, [r1, #0]
    1f5c:	6a62      	ldr	r2, [r4, #36]	; 0x24
    1f5e:	1c51      	adds	r1, r2, #1
    1f60:	6261      	str	r1, [r4, #36]	; 0x24
    1f62:	7961      	ldrb	r1, [r4, #5]
    1f64:	2901      	cmp	r1, #1
    1f66:	d104      	bne.n	1f72 <_usart_interrupt_handler+0xfe>
    1f68:	0a1b      	lsrs	r3, r3, #8
    1f6a:	7053      	strb	r3, [r2, #1]
    1f6c:	6a63      	ldr	r3, [r4, #36]	; 0x24
    1f6e:	3301      	adds	r3, #1
    1f70:	6263      	str	r3, [r4, #36]	; 0x24
    1f72:	8da3      	ldrh	r3, [r4, #44]	; 0x2c
    1f74:	3b01      	subs	r3, #1
    1f76:	b29b      	uxth	r3, r3
    1f78:	85a3      	strh	r3, [r4, #44]	; 0x2c
    1f7a:	2b00      	cmp	r3, #0
    1f7c:	d10b      	bne.n	1f96 <_usart_interrupt_handler+0x122>
    1f7e:	2204      	movs	r2, #4
    1f80:	752a      	strb	r2, [r5, #20]
    1f82:	1c22      	adds	r2, r4, #0
    1f84:	3232      	adds	r2, #50	; 0x32
    1f86:	7013      	strb	r3, [r2, #0]
    1f88:	07b3      	lsls	r3, r6, #30
    1f8a:	d504      	bpl.n	1f96 <_usart_interrupt_handler+0x122>
    1f8c:	1c20      	adds	r0, r4, #0
    1f8e:	6923      	ldr	r3, [r4, #16]
    1f90:	4798      	blx	r3
    1f92:	e000      	b.n	1f96 <_usart_interrupt_handler+0x122>
    1f94:	752b      	strb	r3, [r5, #20]
    1f96:	2310      	movs	r3, #16
    1f98:	421f      	tst	r7, r3
    1f9a:	d006      	beq.n	1faa <_usart_interrupt_handler+0x136>
    1f9c:	752b      	strb	r3, [r5, #20]
    1f9e:	762b      	strb	r3, [r5, #24]
    1fa0:	421e      	tst	r6, r3
    1fa2:	d002      	beq.n	1faa <_usart_interrupt_handler+0x136>
    1fa4:	1c20      	adds	r0, r4, #0
    1fa6:	69e3      	ldr	r3, [r4, #28]
    1fa8:	4798      	blx	r3
    1faa:	2320      	movs	r3, #32
    1fac:	421f      	tst	r7, r3
    1fae:	d006      	beq.n	1fbe <_usart_interrupt_handler+0x14a>
    1fb0:	752b      	strb	r3, [r5, #20]
    1fb2:	762b      	strb	r3, [r5, #24]
    1fb4:	0733      	lsls	r3, r6, #28
    1fb6:	d502      	bpl.n	1fbe <_usart_interrupt_handler+0x14a>
    1fb8:	1c20      	adds	r0, r4, #0
    1fba:	69a3      	ldr	r3, [r4, #24]
    1fbc:	4798      	blx	r3
    1fbe:	2308      	movs	r3, #8
    1fc0:	421f      	tst	r7, r3
    1fc2:	d006      	beq.n	1fd2 <_usart_interrupt_handler+0x15e>
    1fc4:	752b      	strb	r3, [r5, #20]
    1fc6:	762b      	strb	r3, [r5, #24]
    1fc8:	06b3      	lsls	r3, r6, #26
    1fca:	d502      	bpl.n	1fd2 <_usart_interrupt_handler+0x15e>
    1fcc:	6a23      	ldr	r3, [r4, #32]
    1fce:	1c20      	adds	r0, r4, #0
    1fd0:	4798      	blx	r3
    1fd2:	bdf8      	pop	{r3, r4, r5, r6, r7, pc}
    1fd4:	20000788 	.word	0x20000788

00001fd8 <_system_dfll_wait_for_sync>:
    1fd8:	4b02      	ldr	r3, [pc, #8]	; (1fe4 <_system_dfll_wait_for_sync+0xc>)
    1fda:	68db      	ldr	r3, [r3, #12]
    1fdc:	06db      	lsls	r3, r3, #27
    1fde:	d5fb      	bpl.n	1fd8 <_system_dfll_wait_for_sync>
    1fe0:	4770      	bx	lr
    1fe2:	46c0      	nop			; (mov r8, r8)
    1fe4:	40000800 	.word	0x40000800

00001fe8 <system_clock_source_enable.part.0>:
    1fe8:	2202      	movs	r2, #2
    1fea:	b5f8      	push	{r3, r4, r5, r6, r7, lr}
    1fec:	2600      	movs	r6, #0
    1fee:	4d09      	ldr	r5, [pc, #36]	; (2014 <STACK_SIZE+0x14>)
    1ff0:	4c09      	ldr	r4, [pc, #36]	; (2018 <STACK_SIZE+0x18>)
    1ff2:	682b      	ldr	r3, [r5, #0]
    1ff4:	4f09      	ldr	r7, [pc, #36]	; (201c <STACK_SIZE+0x1c>)
    1ff6:	4313      	orrs	r3, r2
    1ff8:	602b      	str	r3, [r5, #0]
    1ffa:	84a2      	strh	r2, [r4, #36]	; 0x24
    1ffc:	47b8      	blx	r7
    1ffe:	68ab      	ldr	r3, [r5, #8]
    2000:	62e3      	str	r3, [r4, #44]	; 0x2c
    2002:	686b      	ldr	r3, [r5, #4]
    2004:	62a3      	str	r3, [r4, #40]	; 0x28
    2006:	84a6      	strh	r6, [r4, #36]	; 0x24
    2008:	47b8      	blx	r7
    200a:	682b      	ldr	r3, [r5, #0]
    200c:	1c30      	adds	r0, r6, #0
    200e:	b29b      	uxth	r3, r3
    2010:	84a3      	strh	r3, [r4, #36]	; 0x24
    2012:	bdf8      	pop	{r3, r4, r5, r6, r7, pc}
    2014:	2000066c 	.word	0x2000066c
    2018:	40000800 	.word	0x40000800
    201c:	00001fd9 	.word	0x00001fd9

00002020 <system_clock_source_get_hz>:
    2020:	b510      	push	{r4, lr}
    2022:	2808      	cmp	r0, #8
    2024:	d806      	bhi.n	2034 <system_clock_source_get_hz+0x14>
    2026:	f002 f919 	bl	425c <__gnu_thumb1_case_uqi>
    202a:	0507      	.short	0x0507
    202c:	122e2e05 	.word	0x122e2e05
    2030:	150a      	.short	0x150a
    2032:	26          	.byte	0x26
    2033:	00          	.byte	0x00
    2034:	2000      	movs	r0, #0
    2036:	e02a      	b.n	208e <system_clock_source_get_hz+0x6e>
    2038:	4b15      	ldr	r3, [pc, #84]	; (2090 <system_clock_source_get_hz+0x70>)
    203a:	6918      	ldr	r0, [r3, #16]
    203c:	e027      	b.n	208e <system_clock_source_get_hz+0x6e>
    203e:	4b15      	ldr	r3, [pc, #84]	; (2094 <system_clock_source_get_hz+0x74>)
    2040:	6a18      	ldr	r0, [r3, #32]
    2042:	4b15      	ldr	r3, [pc, #84]	; (2098 <system_clock_source_get_hz+0x78>)
    2044:	0580      	lsls	r0, r0, #22
    2046:	0f80      	lsrs	r0, r0, #30
    2048:	40c3      	lsrs	r3, r0
    204a:	1c18      	adds	r0, r3, #0
    204c:	e01f      	b.n	208e <system_clock_source_get_hz+0x6e>
    204e:	4b10      	ldr	r3, [pc, #64]	; (2090 <system_clock_source_get_hz+0x70>)
    2050:	6958      	ldr	r0, [r3, #20]
    2052:	e01c      	b.n	208e <system_clock_source_get_hz+0x6e>
    2054:	2302      	movs	r3, #2
    2056:	4c0e      	ldr	r4, [pc, #56]	; (2090 <system_clock_source_get_hz+0x70>)
    2058:	6820      	ldr	r0, [r4, #0]
    205a:	4018      	ands	r0, r3
    205c:	d017      	beq.n	208e <system_clock_source_get_hz+0x6e>
    205e:	4b0f      	ldr	r3, [pc, #60]	; (209c <system_clock_source_get_hz+0x7c>)
    2060:	4798      	blx	r3
    2062:	6823      	ldr	r3, [r4, #0]
    2064:	075b      	lsls	r3, r3, #29
    2066:	d511      	bpl.n	208c <system_clock_source_get_hz+0x6c>
    2068:	4b0d      	ldr	r3, [pc, #52]	; (20a0 <system_clock_source_get_hz+0x80>)
    206a:	2000      	movs	r0, #0
    206c:	4798      	blx	r3
    206e:	68a3      	ldr	r3, [r4, #8]
    2070:	b29b      	uxth	r3, r3
    2072:	4358      	muls	r0, r3
    2074:	e00b      	b.n	208e <system_clock_source_get_hz+0x6e>
    2076:	4b0b      	ldr	r3, [pc, #44]	; (20a4 <system_clock_source_get_hz+0x84>)
    2078:	2000      	movs	r0, #0
    207a:	781b      	ldrb	r3, [r3, #0]
    207c:	075b      	lsls	r3, r3, #29
    207e:	d506      	bpl.n	208e <system_clock_source_get_hz+0x6e>
    2080:	4b03      	ldr	r3, [pc, #12]	; (2090 <system_clock_source_get_hz+0x70>)
    2082:	68d8      	ldr	r0, [r3, #12]
    2084:	e003      	b.n	208e <system_clock_source_get_hz+0x6e>
    2086:	2080      	movs	r0, #128	; 0x80
    2088:	0200      	lsls	r0, r0, #8
    208a:	e000      	b.n	208e <system_clock_source_get_hz+0x6e>
    208c:	4806      	ldr	r0, [pc, #24]	; (20a8 <system_clock_source_get_hz+0x88>)
    208e:	bd10      	pop	{r4, pc}
    2090:	2000066c 	.word	0x2000066c
    2094:	40000800 	.word	0x40000800
    2098:	007a1200 	.word	0x007a1200
    209c:	00001fd9 	.word	0x00001fd9
    20a0:	0000251d 	.word	0x0000251d
    20a4:	40000850 	.word	0x40000850
    20a8:	02dc6c00 	.word	0x02dc6c00

000020ac <system_clock_source_osc8m_set_config>:
    20ac:	b570      	push	{r4, r5, r6, lr}
    20ae:	2101      	movs	r1, #1
    20b0:	7886      	ldrb	r6, [r0, #2]
    20b2:	7805      	ldrb	r5, [r0, #0]
    20b4:	7842      	ldrb	r2, [r0, #1]
    20b6:	2040      	movs	r0, #64	; 0x40
    20b8:	4c09      	ldr	r4, [pc, #36]	; (20e0 <system_clock_source_osc8m_set_config+0x34>)
    20ba:	400a      	ands	r2, r1
    20bc:	6a23      	ldr	r3, [r4, #32]
    20be:	0192      	lsls	r2, r2, #6
    20c0:	4383      	bics	r3, r0
    20c2:	4313      	orrs	r3, r2
    20c4:	2280      	movs	r2, #128	; 0x80
    20c6:	4031      	ands	r1, r6
    20c8:	01c9      	lsls	r1, r1, #7
    20ca:	4393      	bics	r3, r2
    20cc:	430b      	orrs	r3, r1
    20ce:	3a7d      	subs	r2, #125	; 0x7d
    20d0:	4904      	ldr	r1, [pc, #16]	; (20e4 <system_clock_source_osc8m_set_config+0x38>)
    20d2:	4015      	ands	r5, r2
    20d4:	022d      	lsls	r5, r5, #8
    20d6:	400b      	ands	r3, r1
    20d8:	432b      	orrs	r3, r5
    20da:	6223      	str	r3, [r4, #32]
    20dc:	bd70      	pop	{r4, r5, r6, pc}
    20de:	46c0      	nop			; (mov r8, r8)
    20e0:	40000800 	.word	0x40000800
    20e4:	fffffcff 	.word	0xfffffcff

000020e8 <system_clock_source_dfll_set_config>:
    20e8:	7a02      	ldrb	r2, [r0, #8]
    20ea:	8943      	ldrh	r3, [r0, #10]
    20ec:	0692      	lsls	r2, r2, #26
    20ee:	059b      	lsls	r3, r3, #22
    20f0:	0d9b      	lsrs	r3, r3, #22
    20f2:	0c12      	lsrs	r2, r2, #16
    20f4:	431a      	orrs	r2, r3
    20f6:	4b19      	ldr	r3, [pc, #100]	; (215c <system_clock_source_dfll_set_config+0x74>)
    20f8:	b530      	push	{r4, r5, lr}
    20fa:	605a      	str	r2, [r3, #4]
    20fc:	8842      	ldrh	r2, [r0, #2]
    20fe:	8884      	ldrh	r4, [r0, #4]
    2100:	7981      	ldrb	r1, [r0, #6]
    2102:	4314      	orrs	r4, r2
    2104:	79c2      	ldrb	r2, [r0, #7]
    2106:	430a      	orrs	r2, r1
    2108:	7841      	ldrb	r1, [r0, #1]
    210a:	4322      	orrs	r2, r4
    210c:	01c9      	lsls	r1, r1, #7
    210e:	7804      	ldrb	r4, [r0, #0]
    2110:	430a      	orrs	r2, r1
    2112:	601a      	str	r2, [r3, #0]
    2114:	2c04      	cmp	r4, #4
    2116:	d10e      	bne.n	2136 <system_clock_source_dfll_set_config+0x4e>
    2118:	7b02      	ldrb	r2, [r0, #12]
    211a:	8a01      	ldrh	r1, [r0, #16]
    211c:	0692      	lsls	r2, r2, #26
    211e:	430a      	orrs	r2, r1
    2120:	1c15      	adds	r5, r2, #0
    2122:	89c2      	ldrh	r2, [r0, #14]
    2124:	490e      	ldr	r1, [pc, #56]	; (2160 <system_clock_source_dfll_set_config+0x78>)
    2126:	0412      	lsls	r2, r2, #16
    2128:	400a      	ands	r2, r1
    212a:	432a      	orrs	r2, r5
    212c:	609a      	str	r2, [r3, #8]
    212e:	681a      	ldr	r2, [r3, #0]
    2130:	4314      	orrs	r4, r2
    2132:	601c      	str	r4, [r3, #0]
    2134:	e010      	b.n	2158 <system_clock_source_dfll_set_config+0x70>
    2136:	2c20      	cmp	r4, #32
    2138:	d10e      	bne.n	2158 <system_clock_source_dfll_set_config+0x70>
    213a:	7b02      	ldrb	r2, [r0, #12]
    213c:	8a01      	ldrh	r1, [r0, #16]
    213e:	0692      	lsls	r2, r2, #26
    2140:	430a      	orrs	r2, r1
    2142:	1c14      	adds	r4, r2, #0
    2144:	89c2      	ldrh	r2, [r0, #14]
    2146:	4906      	ldr	r1, [pc, #24]	; (2160 <system_clock_source_dfll_set_config+0x78>)
    2148:	0412      	lsls	r2, r2, #16
    214a:	400a      	ands	r2, r1
    214c:	4322      	orrs	r2, r4
    214e:	609a      	str	r2, [r3, #8]
    2150:	681a      	ldr	r2, [r3, #0]
    2152:	4904      	ldr	r1, [pc, #16]	; (2164 <system_clock_source_dfll_set_config+0x7c>)
    2154:	430a      	orrs	r2, r1
    2156:	601a      	str	r2, [r3, #0]
    2158:	bd30      	pop	{r4, r5, pc}
    215a:	46c0      	nop			; (mov r8, r8)
    215c:	2000066c 	.word	0x2000066c
    2160:	03ff0000 	.word	0x03ff0000
    2164:	00000424 	.word	0x00000424

00002168 <system_clock_source_enable>:
    2168:	b508      	push	{r3, lr}
    216a:	2808      	cmp	r0, #8
    216c:	d806      	bhi.n	217c <system_clock_source_enable+0x14>
    216e:	f002 f875 	bl	425c <__gnu_thumb1_case_uqi>
    2172:	0513      	.short	0x0513
    2174:	190d2705 	.word	0x190d2705
    2178:	1f07      	.short	0x1f07
    217a:	22          	.byte	0x22
    217b:	00          	.byte	0x00
    217c:	2017      	movs	r0, #23
    217e:	e020      	b.n	21c2 <system_clock_source_enable+0x5a>
    2180:	2102      	movs	r1, #2
    2182:	4a10      	ldr	r2, [pc, #64]	; (21c4 <system_clock_source_enable+0x5c>)
    2184:	6a13      	ldr	r3, [r2, #32]
    2186:	430b      	orrs	r3, r1
    2188:	6213      	str	r3, [r2, #32]
    218a:	e019      	b.n	21c0 <system_clock_source_enable+0x58>
    218c:	2102      	movs	r1, #2
    218e:	4a0d      	ldr	r2, [pc, #52]	; (21c4 <system_clock_source_enable+0x5c>)
    2190:	6993      	ldr	r3, [r2, #24]
    2192:	430b      	orrs	r3, r1
    2194:	6193      	str	r3, [r2, #24]
    2196:	e013      	b.n	21c0 <system_clock_source_enable+0x58>
    2198:	2102      	movs	r1, #2
    219a:	4a0a      	ldr	r2, [pc, #40]	; (21c4 <system_clock_source_enable+0x5c>)
    219c:	8a13      	ldrh	r3, [r2, #16]
    219e:	430b      	orrs	r3, r1
    21a0:	8213      	strh	r3, [r2, #16]
    21a2:	e00d      	b.n	21c0 <system_clock_source_enable+0x58>
    21a4:	2102      	movs	r1, #2
    21a6:	4a07      	ldr	r2, [pc, #28]	; (21c4 <system_clock_source_enable+0x5c>)
    21a8:	8a93      	ldrh	r3, [r2, #20]
    21aa:	430b      	orrs	r3, r1
    21ac:	8293      	strh	r3, [r2, #20]
    21ae:	e007      	b.n	21c0 <system_clock_source_enable+0x58>
    21b0:	4b05      	ldr	r3, [pc, #20]	; (21c8 <system_clock_source_enable+0x60>)
    21b2:	4798      	blx	r3
    21b4:	e005      	b.n	21c2 <system_clock_source_enable+0x5a>
    21b6:	2102      	movs	r1, #2
    21b8:	4a04      	ldr	r2, [pc, #16]	; (21cc <system_clock_source_enable+0x64>)
    21ba:	7813      	ldrb	r3, [r2, #0]
    21bc:	430b      	orrs	r3, r1
    21be:	7013      	strb	r3, [r2, #0]
    21c0:	2000      	movs	r0, #0
    21c2:	bd08      	pop	{r3, pc}
    21c4:	40000800 	.word	0x40000800
    21c8:	00001fe9 	.word	0x00001fe9
    21cc:	40000844 	.word	0x40000844

000021d0 <system_clock_init>:
    21d0:	23c2      	movs	r3, #194	; 0xc2
    21d2:	211e      	movs	r1, #30
    21d4:	b5f0      	push	{r4, r5, r6, r7, lr}
    21d6:	4e35      	ldr	r6, [pc, #212]	; (22ac <system_clock_init+0xdc>)
    21d8:	00db      	lsls	r3, r3, #3
    21da:	4a35      	ldr	r2, [pc, #212]	; (22b0 <system_clock_init+0xe0>)
    21dc:	60b3      	str	r3, [r6, #8]
    21de:	6853      	ldr	r3, [r2, #4]
    21e0:	2500      	movs	r5, #0
    21e2:	438b      	bics	r3, r1
    21e4:	391a      	subs	r1, #26
    21e6:	430b      	orrs	r3, r1
    21e8:	6053      	str	r3, [r2, #4]
    21ea:	2301      	movs	r3, #1
    21ec:	b08b      	sub	sp, #44	; 0x2c
    21ee:	ac05      	add	r4, sp, #20
    21f0:	7023      	strb	r3, [r4, #0]
    21f2:	b2e8      	uxtb	r0, r5
    21f4:	1c21      	adds	r1, r4, #0
    21f6:	4b2f      	ldr	r3, [pc, #188]	; (22b4 <system_clock_init+0xe4>)
    21f8:	3501      	adds	r5, #1
    21fa:	4798      	blx	r3
    21fc:	2d25      	cmp	r5, #37	; 0x25
    21fe:	d1f8      	bne.n	21f2 <system_clock_init+0x22>
    2200:	2300      	movs	r3, #0
    2202:	2220      	movs	r2, #32
    2204:	8063      	strh	r3, [r4, #2]
    2206:	71a3      	strb	r3, [r4, #6]
    2208:	71e3      	strb	r3, [r4, #7]
    220a:	7063      	strb	r3, [r4, #1]
    220c:	4b2a      	ldr	r3, [pc, #168]	; (22b8 <system_clock_init+0xe8>)
    220e:	7022      	strb	r2, [r4, #0]
    2210:	681b      	ldr	r3, [r3, #0]
    2212:	0e9b      	lsrs	r3, r3, #26
    2214:	2b3f      	cmp	r3, #63	; 0x3f
    2216:	d100      	bne.n	221a <system_clock_init+0x4a>
    2218:	3b20      	subs	r3, #32
    221a:	7223      	strb	r3, [r4, #8]
    221c:	2307      	movs	r3, #7
    221e:	2500      	movs	r5, #0
    2220:	2701      	movs	r7, #1
    2222:	7323      	strb	r3, [r4, #12]
    2224:	3303      	adds	r3, #3
    2226:	81e3      	strh	r3, [r4, #14]
    2228:	4b24      	ldr	r3, [pc, #144]	; (22bc <system_clock_init+0xec>)
    222a:	1c20      	adds	r0, r4, #0
    222c:	8163      	strh	r3, [r4, #10]
    222e:	3bff      	subs	r3, #255	; 0xff
    2230:	80a3      	strh	r3, [r4, #4]
    2232:	4b23      	ldr	r3, [pc, #140]	; (22c0 <system_clock_init+0xf0>)
    2234:	8223      	strh	r3, [r4, #16]
    2236:	4b23      	ldr	r3, [pc, #140]	; (22c4 <system_clock_init+0xf4>)
    2238:	4798      	blx	r3
    223a:	a801      	add	r0, sp, #4
    223c:	4b22      	ldr	r3, [pc, #136]	; (22c8 <system_clock_init+0xf8>)
    223e:	7045      	strb	r5, [r0, #1]
    2240:	7087      	strb	r7, [r0, #2]
    2242:	7005      	strb	r5, [r0, #0]
    2244:	4798      	blx	r3
    2246:	4b21      	ldr	r3, [pc, #132]	; (22cc <system_clock_init+0xfc>)
    2248:	2006      	movs	r0, #6
    224a:	4798      	blx	r3
    224c:	4b20      	ldr	r3, [pc, #128]	; (22d0 <system_clock_init+0x100>)
    224e:	4798      	blx	r3
    2250:	2306      	movs	r3, #6
    2252:	ac02      	add	r4, sp, #8
    2254:	1c21      	adds	r1, r4, #0
    2256:	7065      	strb	r5, [r4, #1]
    2258:	7225      	strb	r5, [r4, #8]
    225a:	7265      	strb	r5, [r4, #9]
    225c:	2003      	movs	r0, #3
    225e:	4d1d      	ldr	r5, [pc, #116]	; (22d4 <system_clock_init+0x104>)
    2260:	7023      	strb	r3, [r4, #0]
    2262:	6067      	str	r7, [r4, #4]
    2264:	47a8      	blx	r5
    2266:	2003      	movs	r0, #3
    2268:	4f1b      	ldr	r7, [pc, #108]	; (22d8 <system_clock_init+0x108>)
    226a:	47b8      	blx	r7
    226c:	4b1b      	ldr	r3, [pc, #108]	; (22dc <system_clock_init+0x10c>)
    226e:	4798      	blx	r3
    2270:	1c2b      	adds	r3, r5, #0
    2272:	68f2      	ldr	r2, [r6, #12]
    2274:	490d      	ldr	r1, [pc, #52]	; (22ac <system_clock_init+0xdc>)
    2276:	06d2      	lsls	r2, r2, #27
    2278:	d5fb      	bpl.n	2272 <system_clock_init+0xa2>
    227a:	2080      	movs	r0, #128	; 0x80
    227c:	2500      	movs	r5, #0
    227e:	8c8a      	ldrh	r2, [r1, #36]	; 0x24
    2280:	4302      	orrs	r2, r0
    2282:	848a      	strh	r2, [r1, #36]	; 0x24
    2284:	4a16      	ldr	r2, [pc, #88]	; (22e0 <system_clock_init+0x110>)
    2286:	2107      	movs	r1, #7
    2288:	7215      	strb	r5, [r2, #8]
    228a:	7255      	strb	r5, [r2, #9]
    228c:	7295      	strb	r5, [r2, #10]
    228e:	72d5      	strb	r5, [r2, #11]
    2290:	2201      	movs	r2, #1
    2292:	7021      	strb	r1, [r4, #0]
    2294:	1c28      	adds	r0, r5, #0
    2296:	1c21      	adds	r1, r4, #0
    2298:	6062      	str	r2, [r4, #4]
    229a:	7222      	strb	r2, [r4, #8]
    229c:	7065      	strb	r5, [r4, #1]
    229e:	7265      	strb	r5, [r4, #9]
    22a0:	4798      	blx	r3
    22a2:	1c28      	adds	r0, r5, #0
    22a4:	47b8      	blx	r7
    22a6:	b00b      	add	sp, #44	; 0x2c
    22a8:	bdf0      	pop	{r4, r5, r6, r7, pc}
    22aa:	46c0      	nop			; (mov r8, r8)
    22ac:	40000800 	.word	0x40000800
    22b0:	41004000 	.word	0x41004000
    22b4:	00002501 	.word	0x00002501
    22b8:	00806024 	.word	0x00806024
    22bc:	000001ff 	.word	0x000001ff
    22c0:	ffffbb80 	.word	0xffffbb80
    22c4:	000020e9 	.word	0x000020e9
    22c8:	000020ad 	.word	0x000020ad
    22cc:	00002169 	.word	0x00002169
    22d0:	000022f1 	.word	0x000022f1
    22d4:	00002311 	.word	0x00002311
    22d8:	000023b5 	.word	0x000023b5
    22dc:	00001fe9 	.word	0x00001fe9
    22e0:	40000400 	.word	0x40000400

000022e4 <system_gclk_is_syncing>:
    22e4:	4b01      	ldr	r3, [pc, #4]	; (22ec <system_gclk_is_syncing+0x8>)
    22e6:	7858      	ldrb	r0, [r3, #1]
    22e8:	09c0      	lsrs	r0, r0, #7
    22ea:	4770      	bx	lr
    22ec:	40000c00 	.word	0x40000c00

000022f0 <system_gclk_init>:
    22f0:	2108      	movs	r1, #8
    22f2:	4a05      	ldr	r2, [pc, #20]	; (2308 <system_gclk_init+0x18>)
    22f4:	6993      	ldr	r3, [r2, #24]
    22f6:	430b      	orrs	r3, r1
    22f8:	6193      	str	r3, [r2, #24]
    22fa:	2201      	movs	r2, #1
    22fc:	4b03      	ldr	r3, [pc, #12]	; (230c <system_gclk_init+0x1c>)
    22fe:	701a      	strb	r2, [r3, #0]
    2300:	781a      	ldrb	r2, [r3, #0]
    2302:	07d2      	lsls	r2, r2, #31
    2304:	d4fc      	bmi.n	2300 <system_gclk_init+0x10>
    2306:	4770      	bx	lr
    2308:	40000400 	.word	0x40000400
    230c:	40000c00 	.word	0x40000c00

00002310 <system_gclk_gen_set_config>:
    2310:	b5f8      	push	{r3, r4, r5, r6, r7, lr}
    2312:	780c      	ldrb	r4, [r1, #0]
    2314:	784b      	ldrb	r3, [r1, #1]
    2316:	0224      	lsls	r4, r4, #8
    2318:	1c06      	adds	r6, r0, #0
    231a:	1c05      	adds	r5, r0, #0
    231c:	4304      	orrs	r4, r0
    231e:	2b00      	cmp	r3, #0
    2320:	d002      	beq.n	2328 <system_gclk_gen_set_config+0x18>
    2322:	2380      	movs	r3, #128	; 0x80
    2324:	02db      	lsls	r3, r3, #11
    2326:	431c      	orrs	r4, r3
    2328:	7a4b      	ldrb	r3, [r1, #9]
    232a:	2b00      	cmp	r3, #0
    232c:	d002      	beq.n	2334 <system_gclk_gen_set_config+0x24>
    232e:	2380      	movs	r3, #128	; 0x80
    2330:	031b      	lsls	r3, r3, #12
    2332:	431c      	orrs	r4, r3
    2334:	684b      	ldr	r3, [r1, #4]
    2336:	2b01      	cmp	r3, #1
    2338:	d912      	bls.n	2360 <system_gclk_gen_set_config+0x50>
    233a:	1e5d      	subs	r5, r3, #1
    233c:	401d      	ands	r5, r3
    233e:	d10a      	bne.n	2356 <system_gclk_gen_set_config+0x46>
    2340:	2202      	movs	r2, #2
    2342:	429a      	cmp	r2, r3
    2344:	d202      	bcs.n	234c <system_gclk_gen_set_config+0x3c>
    2346:	3501      	adds	r5, #1
    2348:	0052      	lsls	r2, r2, #1
    234a:	e7fa      	b.n	2342 <system_gclk_gen_set_config+0x32>
    234c:	2380      	movs	r3, #128	; 0x80
    234e:	022d      	lsls	r5, r5, #8
    2350:	4335      	orrs	r5, r6
    2352:	035b      	lsls	r3, r3, #13
    2354:	e003      	b.n	235e <system_gclk_gen_set_config+0x4e>
    2356:	021d      	lsls	r5, r3, #8
    2358:	2380      	movs	r3, #128	; 0x80
    235a:	4335      	orrs	r5, r6
    235c:	029b      	lsls	r3, r3, #10
    235e:	431c      	orrs	r4, r3
    2360:	7a0b      	ldrb	r3, [r1, #8]
    2362:	2b00      	cmp	r3, #0
    2364:	d002      	beq.n	236c <system_gclk_gen_set_config+0x5c>
    2366:	2380      	movs	r3, #128	; 0x80
    2368:	039b      	lsls	r3, r3, #14
    236a:	431c      	orrs	r4, r3
    236c:	4f0c      	ldr	r7, [pc, #48]	; (23a0 <system_gclk_gen_set_config+0x90>)
    236e:	47b8      	blx	r7
    2370:	2800      	cmp	r0, #0
    2372:	d1fb      	bne.n	236c <system_gclk_gen_set_config+0x5c>
    2374:	4b0b      	ldr	r3, [pc, #44]	; (23a4 <system_gclk_gen_set_config+0x94>)
    2376:	4798      	blx	r3
    2378:	4b0b      	ldr	r3, [pc, #44]	; (23a8 <system_gclk_gen_set_config+0x98>)
    237a:	701e      	strb	r6, [r3, #0]
    237c:	47b8      	blx	r7
    237e:	2800      	cmp	r0, #0
    2380:	d1fc      	bne.n	237c <system_gclk_gen_set_config+0x6c>
    2382:	4b0a      	ldr	r3, [pc, #40]	; (23ac <system_gclk_gen_set_config+0x9c>)
    2384:	609d      	str	r5, [r3, #8]
    2386:	1c1d      	adds	r5, r3, #0
    2388:	47b8      	blx	r7
    238a:	2800      	cmp	r0, #0
    238c:	d1fc      	bne.n	2388 <system_gclk_gen_set_config+0x78>
    238e:	2380      	movs	r3, #128	; 0x80
    2390:	686a      	ldr	r2, [r5, #4]
    2392:	025b      	lsls	r3, r3, #9
    2394:	4013      	ands	r3, r2
    2396:	431c      	orrs	r4, r3
    2398:	606c      	str	r4, [r5, #4]
    239a:	4b05      	ldr	r3, [pc, #20]	; (23b0 <system_gclk_gen_set_config+0xa0>)
    239c:	4798      	blx	r3
    239e:	bdf8      	pop	{r3, r4, r5, r6, r7, pc}
    23a0:	000022e5 	.word	0x000022e5
    23a4:	0000147d 	.word	0x0000147d
    23a8:	40000c08 	.word	0x40000c08
    23ac:	40000c00 	.word	0x40000c00
    23b0:	000014b1 	.word	0x000014b1

000023b4 <system_gclk_gen_enable>:
    23b4:	b538      	push	{r3, r4, r5, lr}
    23b6:	1c05      	adds	r5, r0, #0
    23b8:	4c09      	ldr	r4, [pc, #36]	; (23e0 <system_gclk_gen_enable+0x2c>)
    23ba:	47a0      	blx	r4
    23bc:	2800      	cmp	r0, #0
    23be:	d1fb      	bne.n	23b8 <system_gclk_gen_enable+0x4>
    23c0:	4b08      	ldr	r3, [pc, #32]	; (23e4 <system_gclk_gen_enable+0x30>)
    23c2:	4798      	blx	r3
    23c4:	4b08      	ldr	r3, [pc, #32]	; (23e8 <system_gclk_gen_enable+0x34>)
    23c6:	701d      	strb	r5, [r3, #0]
    23c8:	47a0      	blx	r4
    23ca:	2800      	cmp	r0, #0
    23cc:	d1fc      	bne.n	23c8 <system_gclk_gen_enable+0x14>
    23ce:	2180      	movs	r1, #128	; 0x80
    23d0:	4a06      	ldr	r2, [pc, #24]	; (23ec <system_gclk_gen_enable+0x38>)
    23d2:	0249      	lsls	r1, r1, #9
    23d4:	6853      	ldr	r3, [r2, #4]
    23d6:	430b      	orrs	r3, r1
    23d8:	6053      	str	r3, [r2, #4]
    23da:	4b05      	ldr	r3, [pc, #20]	; (23f0 <system_gclk_gen_enable+0x3c>)
    23dc:	4798      	blx	r3
    23de:	bd38      	pop	{r3, r4, r5, pc}
    23e0:	000022e5 	.word	0x000022e5
    23e4:	0000147d 	.word	0x0000147d
    23e8:	40000c04 	.word	0x40000c04
    23ec:	40000c00 	.word	0x40000c00
    23f0:	000014b1 	.word	0x000014b1

000023f4 <system_gclk_gen_get_hz>:
    23f4:	b5f7      	push	{r0, r1, r2, r4, r5, r6, r7, lr}
    23f6:	1c07      	adds	r7, r0, #0
    23f8:	4e18      	ldr	r6, [pc, #96]	; (245c <system_gclk_gen_get_hz+0x68>)
    23fa:	47b0      	blx	r6
    23fc:	2800      	cmp	r0, #0
    23fe:	d1fb      	bne.n	23f8 <system_gclk_gen_get_hz+0x4>
    2400:	4b17      	ldr	r3, [pc, #92]	; (2460 <system_gclk_gen_get_hz+0x6c>)
    2402:	4798      	blx	r3
    2404:	4b17      	ldr	r3, [pc, #92]	; (2464 <system_gclk_gen_get_hz+0x70>)
    2406:	701f      	strb	r7, [r3, #0]
    2408:	9301      	str	r3, [sp, #4]
    240a:	47b0      	blx	r6
    240c:	2800      	cmp	r0, #0
    240e:	d1fc      	bne.n	240a <system_gclk_gen_get_hz+0x16>
    2410:	4d15      	ldr	r5, [pc, #84]	; (2468 <system_gclk_gen_get_hz+0x74>)
    2412:	4b16      	ldr	r3, [pc, #88]	; (246c <system_gclk_gen_get_hz+0x78>)
    2414:	6868      	ldr	r0, [r5, #4]
    2416:	04c0      	lsls	r0, r0, #19
    2418:	0ec0      	lsrs	r0, r0, #27
    241a:	4798      	blx	r3
    241c:	1c04      	adds	r4, r0, #0
    241e:	9b01      	ldr	r3, [sp, #4]
    2420:	701f      	strb	r7, [r3, #0]
    2422:	686b      	ldr	r3, [r5, #4]
    2424:	02db      	lsls	r3, r3, #11
    2426:	0fdb      	lsrs	r3, r3, #31
    2428:	9301      	str	r3, [sp, #4]
    242a:	4b11      	ldr	r3, [pc, #68]	; (2470 <system_gclk_gen_get_hz+0x7c>)
    242c:	701f      	strb	r7, [r3, #0]
    242e:	47b0      	blx	r6
    2430:	2800      	cmp	r0, #0
    2432:	d1fc      	bne.n	242e <system_gclk_gen_get_hz+0x3a>
    2434:	68ad      	ldr	r5, [r5, #8]
    2436:	4b0f      	ldr	r3, [pc, #60]	; (2474 <system_gclk_gen_get_hz+0x80>)
    2438:	4798      	blx	r3
    243a:	9b01      	ldr	r3, [sp, #4]
    243c:	0a2d      	lsrs	r5, r5, #8
    243e:	b2ad      	uxth	r5, r5
    2440:	2b00      	cmp	r3, #0
    2442:	d107      	bne.n	2454 <system_gclk_gen_get_hz+0x60>
    2444:	2d01      	cmp	r5, #1
    2446:	d907      	bls.n	2458 <system_gclk_gen_get_hz+0x64>
    2448:	1c20      	adds	r0, r4, #0
    244a:	1c29      	adds	r1, r5, #0
    244c:	4b0a      	ldr	r3, [pc, #40]	; (2478 <system_gclk_gen_get_hz+0x84>)
    244e:	4798      	blx	r3
    2450:	1c04      	adds	r4, r0, #0
    2452:	e001      	b.n	2458 <system_gclk_gen_get_hz+0x64>
    2454:	3501      	adds	r5, #1
    2456:	40ec      	lsrs	r4, r5
    2458:	1c20      	adds	r0, r4, #0
    245a:	bdfe      	pop	{r1, r2, r3, r4, r5, r6, r7, pc}
    245c:	000022e5 	.word	0x000022e5
    2460:	0000147d 	.word	0x0000147d
    2464:	40000c04 	.word	0x40000c04
    2468:	40000c00 	.word	0x40000c00
    246c:	00002021 	.word	0x00002021
    2470:	40000c08 	.word	0x40000c08
    2474:	000014b1 	.word	0x000014b1
    2478:	00004271 	.word	0x00004271

0000247c <system_gclk_chan_enable>:
    247c:	b510      	push	{r4, lr}
    247e:	1c04      	adds	r4, r0, #0
    2480:	4b06      	ldr	r3, [pc, #24]	; (249c <system_gclk_chan_enable+0x20>)
    2482:	4798      	blx	r3
    2484:	2180      	movs	r1, #128	; 0x80
    2486:	4b06      	ldr	r3, [pc, #24]	; (24a0 <system_gclk_chan_enable+0x24>)
    2488:	4a06      	ldr	r2, [pc, #24]	; (24a4 <system_gclk_chan_enable+0x28>)
    248a:	701c      	strb	r4, [r3, #0]
    248c:	8853      	ldrh	r3, [r2, #2]
    248e:	01c9      	lsls	r1, r1, #7
    2490:	430b      	orrs	r3, r1
    2492:	8053      	strh	r3, [r2, #2]
    2494:	4b04      	ldr	r3, [pc, #16]	; (24a8 <system_gclk_chan_enable+0x2c>)
    2496:	4798      	blx	r3
    2498:	bd10      	pop	{r4, pc}
    249a:	46c0      	nop			; (mov r8, r8)
    249c:	0000147d 	.word	0x0000147d
    24a0:	40000c02 	.word	0x40000c02
    24a4:	40000c00 	.word	0x40000c00
    24a8:	000014b1 	.word	0x000014b1

000024ac <system_gclk_chan_disable>:
    24ac:	b510      	push	{r4, lr}
    24ae:	1c04      	adds	r4, r0, #0
    24b0:	4b0d      	ldr	r3, [pc, #52]	; (24e8 <system_gclk_chan_disable+0x3c>)
    24b2:	4798      	blx	r3
    24b4:	4b0d      	ldr	r3, [pc, #52]	; (24ec <system_gclk_chan_disable+0x40>)
    24b6:	4a0e      	ldr	r2, [pc, #56]	; (24f0 <system_gclk_chan_disable+0x44>)
    24b8:	701c      	strb	r4, [r3, #0]
    24ba:	4b0e      	ldr	r3, [pc, #56]	; (24f4 <system_gclk_chan_disable+0x48>)
    24bc:	8859      	ldrh	r1, [r3, #2]
    24be:	8858      	ldrh	r0, [r3, #2]
    24c0:	0509      	lsls	r1, r1, #20
    24c2:	4010      	ands	r0, r2
    24c4:	8058      	strh	r0, [r3, #2]
    24c6:	885c      	ldrh	r4, [r3, #2]
    24c8:	480b      	ldr	r0, [pc, #44]	; (24f8 <system_gclk_chan_disable+0x4c>)
    24ca:	0f09      	lsrs	r1, r1, #28
    24cc:	4020      	ands	r0, r4
    24ce:	8058      	strh	r0, [r3, #2]
    24d0:	885c      	ldrh	r4, [r3, #2]
    24d2:	4808      	ldr	r0, [pc, #32]	; (24f4 <system_gclk_chan_disable+0x48>)
    24d4:	0464      	lsls	r4, r4, #17
    24d6:	d4fb      	bmi.n	24d0 <system_gclk_chan_disable+0x24>
    24d8:	020b      	lsls	r3, r1, #8
    24da:	8841      	ldrh	r1, [r0, #2]
    24dc:	400a      	ands	r2, r1
    24de:	431a      	orrs	r2, r3
    24e0:	8042      	strh	r2, [r0, #2]
    24e2:	4b06      	ldr	r3, [pc, #24]	; (24fc <system_gclk_chan_disable+0x50>)
    24e4:	4798      	blx	r3
    24e6:	bd10      	pop	{r4, pc}
    24e8:	0000147d 	.word	0x0000147d
    24ec:	40000c02 	.word	0x40000c02
    24f0:	fffff0ff 	.word	0xfffff0ff
    24f4:	40000c00 	.word	0x40000c00
    24f8:	ffffbfff 	.word	0xffffbfff
    24fc:	000014b1 	.word	0x000014b1

00002500 <system_gclk_chan_set_config>:
    2500:	b510      	push	{r4, lr}
    2502:	780c      	ldrb	r4, [r1, #0]
    2504:	4b03      	ldr	r3, [pc, #12]	; (2514 <system_gclk_chan_set_config+0x14>)
    2506:	0224      	lsls	r4, r4, #8
    2508:	4304      	orrs	r4, r0
    250a:	4798      	blx	r3
    250c:	4b02      	ldr	r3, [pc, #8]	; (2518 <system_gclk_chan_set_config+0x18>)
    250e:	b2a4      	uxth	r4, r4
    2510:	805c      	strh	r4, [r3, #2]
    2512:	bd10      	pop	{r4, pc}
    2514:	000024ad 	.word	0x000024ad
    2518:	40000c00 	.word	0x40000c00

0000251c <system_gclk_chan_get_hz>:
    251c:	b510      	push	{r4, lr}
    251e:	1c04      	adds	r4, r0, #0
    2520:	4b06      	ldr	r3, [pc, #24]	; (253c <system_gclk_chan_get_hz+0x20>)
    2522:	4798      	blx	r3
    2524:	4b06      	ldr	r3, [pc, #24]	; (2540 <system_gclk_chan_get_hz+0x24>)
    2526:	701c      	strb	r4, [r3, #0]
    2528:	4b06      	ldr	r3, [pc, #24]	; (2544 <system_gclk_chan_get_hz+0x28>)
    252a:	885c      	ldrh	r4, [r3, #2]
    252c:	4b06      	ldr	r3, [pc, #24]	; (2548 <system_gclk_chan_get_hz+0x2c>)
    252e:	0524      	lsls	r4, r4, #20
    2530:	0f24      	lsrs	r4, r4, #28
    2532:	4798      	blx	r3
    2534:	1c20      	adds	r0, r4, #0
    2536:	4b05      	ldr	r3, [pc, #20]	; (254c <system_gclk_chan_get_hz+0x30>)
    2538:	4798      	blx	r3
    253a:	bd10      	pop	{r4, pc}
    253c:	0000147d 	.word	0x0000147d
    2540:	40000c02 	.word	0x40000c02
    2544:	40000c00 	.word	0x40000c00
    2548:	000014b1 	.word	0x000014b1
    254c:	000023f5 	.word	0x000023f5

00002550 <_system_pinmux_config>:
    2550:	78d3      	ldrb	r3, [r2, #3]
    2552:	b530      	push	{r4, r5, lr}
    2554:	2b00      	cmp	r3, #0
    2556:	d11b      	bne.n	2590 <_system_pinmux_config+0x40>
    2558:	7814      	ldrb	r4, [r2, #0]
    255a:	2c80      	cmp	r4, #128	; 0x80
    255c:	d003      	beq.n	2566 <_system_pinmux_config+0x16>
    255e:	2380      	movs	r3, #128	; 0x80
    2560:	0624      	lsls	r4, r4, #24
    2562:	025b      	lsls	r3, r3, #9
    2564:	4323      	orrs	r3, r4
    2566:	2502      	movs	r5, #2
    2568:	7854      	ldrb	r4, [r2, #1]
    256a:	43ac      	bics	r4, r5
    256c:	d109      	bne.n	2582 <_system_pinmux_config+0x32>
    256e:	7894      	ldrb	r4, [r2, #2]
    2570:	2c00      	cmp	r4, #0
    2572:	d102      	bne.n	257a <_system_pinmux_config+0x2a>
    2574:	2480      	movs	r4, #128	; 0x80
    2576:	02a4      	lsls	r4, r4, #10
    2578:	e001      	b.n	257e <_system_pinmux_config+0x2e>
    257a:	24c0      	movs	r4, #192	; 0xc0
    257c:	02e4      	lsls	r4, r4, #11
    257e:	4323      	orrs	r3, r4
    2580:	6041      	str	r1, [r0, #4]
    2582:	7854      	ldrb	r4, [r2, #1]
    2584:	3c01      	subs	r4, #1
    2586:	2c01      	cmp	r4, #1
    2588:	d804      	bhi.n	2594 <_system_pinmux_config+0x44>
    258a:	4c11      	ldr	r4, [pc, #68]	; (25d0 <_system_pinmux_config+0x80>)
    258c:	4023      	ands	r3, r4
    258e:	e001      	b.n	2594 <_system_pinmux_config+0x44>
    2590:	2300      	movs	r3, #0
    2592:	6041      	str	r1, [r0, #4]
    2594:	25a0      	movs	r5, #160	; 0xa0
    2596:	b28c      	uxth	r4, r1
    2598:	05ed      	lsls	r5, r5, #23
    259a:	432c      	orrs	r4, r5
    259c:	25d0      	movs	r5, #208	; 0xd0
    259e:	431c      	orrs	r4, r3
    25a0:	6284      	str	r4, [r0, #40]	; 0x28
    25a2:	062d      	lsls	r5, r5, #24
    25a4:	0c0c      	lsrs	r4, r1, #16
    25a6:	432c      	orrs	r4, r5
    25a8:	431c      	orrs	r4, r3
    25aa:	6284      	str	r4, [r0, #40]	; 0x28
    25ac:	78d4      	ldrb	r4, [r2, #3]
    25ae:	2c00      	cmp	r4, #0
    25b0:	d10c      	bne.n	25cc <_system_pinmux_config+0x7c>
    25b2:	035b      	lsls	r3, r3, #13
    25b4:	d505      	bpl.n	25c2 <_system_pinmux_config+0x72>
    25b6:	7893      	ldrb	r3, [r2, #2]
    25b8:	2b01      	cmp	r3, #1
    25ba:	d101      	bne.n	25c0 <_system_pinmux_config+0x70>
    25bc:	6181      	str	r1, [r0, #24]
    25be:	e000      	b.n	25c2 <_system_pinmux_config+0x72>
    25c0:	6141      	str	r1, [r0, #20]
    25c2:	7853      	ldrb	r3, [r2, #1]
    25c4:	3b01      	subs	r3, #1
    25c6:	2b01      	cmp	r3, #1
    25c8:	d800      	bhi.n	25cc <_system_pinmux_config+0x7c>
    25ca:	6081      	str	r1, [r0, #8]
    25cc:	bd30      	pop	{r4, r5, pc}
    25ce:	46c0      	nop			; (mov r8, r8)
    25d0:	fffbffff 	.word	0xfffbffff

000025d4 <system_pinmux_pin_set_config>:
    25d4:	b510      	push	{r4, lr}
    25d6:	2400      	movs	r4, #0
    25d8:	1c0a      	adds	r2, r1, #0
    25da:	0943      	lsrs	r3, r0, #5
    25dc:	09c1      	lsrs	r1, r0, #7
    25de:	42a1      	cmp	r1, r4
    25e0:	d102      	bne.n	25e8 <system_pinmux_pin_set_config+0x14>
    25e2:	4906      	ldr	r1, [pc, #24]	; (25fc <system_pinmux_pin_set_config+0x28>)
    25e4:	01db      	lsls	r3, r3, #7
    25e6:	185c      	adds	r4, r3, r1
    25e8:	211f      	movs	r1, #31
    25ea:	2301      	movs	r3, #1
    25ec:	4001      	ands	r1, r0
    25ee:	408b      	lsls	r3, r1
    25f0:	1c20      	adds	r0, r4, #0
    25f2:	1c19      	adds	r1, r3, #0
    25f4:	4b02      	ldr	r3, [pc, #8]	; (2600 <system_pinmux_pin_set_config+0x2c>)
    25f6:	4798      	blx	r3
    25f8:	bd10      	pop	{r4, pc}
    25fa:	46c0      	nop			; (mov r8, r8)
    25fc:	41004400 	.word	0x41004400
    2600:	00002551 	.word	0x00002551

00002604 <_system_dummy_init>:
    2604:	4770      	bx	lr
	...

00002608 <system_init>:
    2608:	b508      	push	{r3, lr}
    260a:	4b05      	ldr	r3, [pc, #20]	; (2620 <system_init+0x18>)
    260c:	4798      	blx	r3
    260e:	4b05      	ldr	r3, [pc, #20]	; (2624 <system_init+0x1c>)
    2610:	4798      	blx	r3
    2612:	4b05      	ldr	r3, [pc, #20]	; (2628 <system_init+0x20>)
    2614:	4798      	blx	r3
    2616:	4b05      	ldr	r3, [pc, #20]	; (262c <system_init+0x24>)
    2618:	4798      	blx	r3
    261a:	4b05      	ldr	r3, [pc, #20]	; (2630 <system_init+0x28>)
    261c:	4798      	blx	r3
    261e:	bd08      	pop	{r3, pc}
    2620:	000021d1 	.word	0x000021d1
    2624:	000014e1 	.word	0x000014e1
    2628:	00002605 	.word	0x00002605
    262c:	000015ed 	.word	0x000015ed
    2630:	00002605 	.word	0x00002605

00002634 <cpu_irq_save>:
    2634:	b082      	sub	sp, #8
    2636:	f3ef 8310 	mrs	r3, PRIMASK
    263a:	425a      	negs	r2, r3
    263c:	4153      	adcs	r3, r2
    263e:	9301      	str	r3, [sp, #4]
    2640:	b672      	cpsid	i
    2642:	f3bf 8f5f 	dmb	sy
    2646:	2200      	movs	r2, #0
    2648:	4b02      	ldr	r3, [pc, #8]	; (2654 <cpu_irq_save+0x20>)
    264a:	701a      	strb	r2, [r3, #0]
    264c:	9801      	ldr	r0, [sp, #4]
    264e:	b002      	add	sp, #8
    2650:	4770      	bx	lr
    2652:	46c0      	nop			; (mov r8, r8)
    2654:	200000e8 	.word	0x200000e8

00002658 <udd_ep_get_job>:
    2658:	230f      	movs	r3, #15
    265a:	4003      	ands	r3, r0
    265c:	005b      	lsls	r3, r3, #1
    265e:	09c0      	lsrs	r0, r0, #7
    2660:	1818      	adds	r0, r3, r0
    2662:	2314      	movs	r3, #20
    2664:	3802      	subs	r0, #2
    2666:	4358      	muls	r0, r3
    2668:	4b01      	ldr	r3, [pc, #4]	; (2670 <udd_ep_get_job+0x18>)
    266a:	1818      	adds	r0, r3, r0
    266c:	4770      	bx	lr
    266e:	46c0      	nop			; (mov r8, r8)
    2670:	20000688 	.word	0x20000688

00002674 <udd_ep_transfer_process>:
    2674:	b5f0      	push	{r4, r5, r6, r7, lr}
    2676:	798d      	ldrb	r5, [r1, #6]
    2678:	b085      	sub	sp, #20
    267a:	b26a      	sxtb	r2, r5
    267c:	1c0e      	adds	r6, r1, #0
    267e:	4b54      	ldr	r3, [pc, #336]	; (27d0 <udd_ep_transfer_process+0x15c>)
    2680:	1c28      	adds	r0, r5, #0
    2682:	2a00      	cmp	r2, #0
    2684:	da46      	bge.n	2714 <udd_ep_transfer_process+0xa0>
    2686:	270f      	movs	r7, #15
    2688:	4798      	blx	r3
    268a:	402f      	ands	r7, r5
    268c:	9701      	str	r7, [sp, #4]
    268e:	8a03      	ldrh	r3, [r0, #16]
    2690:	6881      	ldr	r1, [r0, #8]
    2692:	9302      	str	r3, [sp, #8]
    2694:	8876      	ldrh	r6, [r6, #2]
    2696:	68c3      	ldr	r3, [r0, #12]
    2698:	1c04      	adds	r4, r0, #0
    269a:	18f6      	adds	r6, r6, r3
    269c:	60c6      	str	r6, [r0, #12]
    269e:	7c87      	ldrb	r7, [r0, #18]
    26a0:	428e      	cmp	r6, r1
    26a2:	d021      	beq.n	26e8 <udd_ep_transfer_process+0x74>
    26a4:	1b8d      	subs	r5, r1, r6
    26a6:	4b4b      	ldr	r3, [pc, #300]	; (27d4 <udd_ep_transfer_process+0x160>)
    26a8:	b2ad      	uxth	r5, r5
    26aa:	429d      	cmp	r5, r3
    26ac:	d906      	bls.n	26bc <udd_ep_transfer_process+0x48>
    26ae:	1c18      	adds	r0, r3, #0
    26b0:	9902      	ldr	r1, [sp, #8]
    26b2:	4b49      	ldr	r3, [pc, #292]	; (27d8 <udd_ep_transfer_process+0x164>)
    26b4:	4798      	blx	r3
    26b6:	4b47      	ldr	r3, [pc, #284]	; (27d4 <udd_ep_transfer_process+0x160>)
    26b8:	1a5d      	subs	r5, r3, r1
    26ba:	b2ad      	uxth	r5, r5
    26bc:	2200      	movs	r2, #0
    26be:	07bb      	lsls	r3, r7, #30
    26c0:	d506      	bpl.n	26d0 <udd_ep_transfer_process+0x5c>
    26c2:	4b46      	ldr	r3, [pc, #280]	; (27dc <udd_ep_transfer_process+0x168>)
    26c4:	1c28      	adds	r0, r5, #0
    26c6:	9902      	ldr	r1, [sp, #8]
    26c8:	4798      	blx	r3
    26ca:	b289      	uxth	r1, r1
    26cc:	424a      	negs	r2, r1
    26ce:	414a      	adcs	r2, r1
    26d0:	0051      	lsls	r1, r2, #1
    26d2:	2202      	movs	r2, #2
    26d4:	7ca3      	ldrb	r3, [r4, #18]
    26d6:	4842      	ldr	r0, [pc, #264]	; (27e0 <udd_ep_transfer_process+0x16c>)
    26d8:	4393      	bics	r3, r2
    26da:	6862      	ldr	r2, [r4, #4]
    26dc:	4319      	orrs	r1, r3
    26de:	74a1      	strb	r1, [r4, #18]
    26e0:	1992      	adds	r2, r2, r6
    26e2:	9901      	ldr	r1, [sp, #4]
    26e4:	1c2b      	adds	r3, r5, #0
    26e6:	e00a      	b.n	26fe <udd_ep_transfer_process+0x8a>
    26e8:	2302      	movs	r3, #2
    26ea:	1c38      	adds	r0, r7, #0
    26ec:	4018      	ands	r0, r3
    26ee:	d009      	beq.n	2704 <udd_ep_transfer_process+0x90>
    26f0:	439f      	bics	r7, r3
    26f2:	2300      	movs	r3, #0
    26f4:	6862      	ldr	r2, [r4, #4]
    26f6:	483a      	ldr	r0, [pc, #232]	; (27e0 <udd_ep_transfer_process+0x16c>)
    26f8:	9901      	ldr	r1, [sp, #4]
    26fa:	74a7      	strb	r7, [r4, #18]
    26fc:	1992      	adds	r2, r2, r6
    26fe:	4c39      	ldr	r4, [pc, #228]	; (27e4 <udd_ep_transfer_process+0x170>)
    2700:	47a0      	blx	r4
    2702:	e063      	b.n	27cc <udd_ep_transfer_process+0x158>
    2704:	2301      	movs	r3, #1
    2706:	439f      	bics	r7, r3
    2708:	6823      	ldr	r3, [r4, #0]
    270a:	74a7      	strb	r7, [r4, #18]
    270c:	1c31      	adds	r1, r6, #0
    270e:	2b00      	cmp	r3, #0
    2710:	d15a      	bne.n	27c8 <udd_ep_transfer_process+0x154>
    2712:	e05b      	b.n	27cc <udd_ep_transfer_process+0x158>
    2714:	4798      	blx	r3
    2716:	230f      	movs	r3, #15
    2718:	402b      	ands	r3, r5
    271a:	9302      	str	r3, [sp, #8]
    271c:	8a03      	ldrh	r3, [r0, #16]
    271e:	1c04      	adds	r4, r0, #0
    2720:	9301      	str	r3, [sp, #4]
    2722:	7c83      	ldrb	r3, [r0, #18]
    2724:	8837      	ldrh	r7, [r6, #0]
    2726:	075b      	lsls	r3, r3, #29
    2728:	d511      	bpl.n	274e <udd_ep_transfer_process+0xda>
    272a:	68c2      	ldr	r2, [r0, #12]
    272c:	6843      	ldr	r3, [r0, #4]
    272e:	4694      	mov	ip, r2
    2730:	4463      	add	r3, ip
    2732:	9303      	str	r3, [sp, #12]
    2734:	6880      	ldr	r0, [r0, #8]
    2736:	4b29      	ldr	r3, [pc, #164]	; (27dc <udd_ep_transfer_process+0x168>)
    2738:	9901      	ldr	r1, [sp, #4]
    273a:	4798      	blx	r3
    273c:	9b02      	ldr	r3, [sp, #8]
    273e:	1c0a      	adds	r2, r1, #0
    2740:	1e59      	subs	r1, r3, #1
    2742:	4b29      	ldr	r3, [pc, #164]	; (27e8 <udd_ep_transfer_process+0x174>)
    2744:	0189      	lsls	r1, r1, #6
    2746:	18c9      	adds	r1, r1, r3
    2748:	9803      	ldr	r0, [sp, #12]
    274a:	4b28      	ldr	r3, [pc, #160]	; (27ec <udd_ep_transfer_process+0x178>)
    274c:	4798      	blx	r3
    274e:	68e3      	ldr	r3, [r4, #12]
    2750:	18fa      	adds	r2, r7, r3
    2752:	68a3      	ldr	r3, [r4, #8]
    2754:	60e2      	str	r2, [r4, #12]
    2756:	429a      	cmp	r2, r3
    2758:	d900      	bls.n	275c <udd_ep_transfer_process+0xe8>
    275a:	60e3      	str	r3, [r4, #12]
    275c:	88b2      	ldrh	r2, [r6, #4]
    275e:	42ba      	cmp	r2, r7
    2760:	d129      	bne.n	27b6 <udd_ep_transfer_process+0x142>
    2762:	68e6      	ldr	r6, [r4, #12]
    2764:	429e      	cmp	r6, r3
    2766:	d026      	beq.n	27b6 <udd_ep_transfer_process+0x142>
    2768:	1b9d      	subs	r5, r3, r6
    276a:	4f1a      	ldr	r7, [pc, #104]	; (27d4 <udd_ep_transfer_process+0x160>)
    276c:	b2ad      	uxth	r5, r5
    276e:	42bd      	cmp	r5, r7
    2770:	d905      	bls.n	277e <udd_ep_transfer_process+0x10a>
    2772:	4b19      	ldr	r3, [pc, #100]	; (27d8 <udd_ep_transfer_process+0x164>)
    2774:	1c38      	adds	r0, r7, #0
    2776:	9901      	ldr	r1, [sp, #4]
    2778:	4798      	blx	r3
    277a:	1a7b      	subs	r3, r7, r1
    277c:	e004      	b.n	2788 <udd_ep_transfer_process+0x114>
    277e:	4b17      	ldr	r3, [pc, #92]	; (27dc <udd_ep_transfer_process+0x168>)
    2780:	1c28      	adds	r0, r5, #0
    2782:	9901      	ldr	r1, [sp, #4]
    2784:	4798      	blx	r3
    2786:	1a6b      	subs	r3, r5, r1
    2788:	9a01      	ldr	r2, [sp, #4]
    278a:	b29b      	uxth	r3, r3
    278c:	4814      	ldr	r0, [pc, #80]	; (27e0 <udd_ep_transfer_process+0x16c>)
    278e:	4f18      	ldr	r7, [pc, #96]	; (27f0 <udd_ep_transfer_process+0x17c>)
    2790:	4293      	cmp	r3, r2
    2792:	d20b      	bcs.n	27ac <udd_ep_transfer_process+0x138>
    2794:	2204      	movs	r2, #4
    2796:	7ca3      	ldrb	r3, [r4, #18]
    2798:	9902      	ldr	r1, [sp, #8]
    279a:	4313      	orrs	r3, r2
    279c:	74a3      	strb	r3, [r4, #18]
    279e:	9b02      	ldr	r3, [sp, #8]
    27a0:	1e5a      	subs	r2, r3, #1
    27a2:	4b11      	ldr	r3, [pc, #68]	; (27e8 <udd_ep_transfer_process+0x174>)
    27a4:	0192      	lsls	r2, r2, #6
    27a6:	18d2      	adds	r2, r2, r3
    27a8:	9b01      	ldr	r3, [sp, #4]
    27aa:	e002      	b.n	27b2 <udd_ep_transfer_process+0x13e>
    27ac:	6862      	ldr	r2, [r4, #4]
    27ae:	9902      	ldr	r1, [sp, #8]
    27b0:	1992      	adds	r2, r2, r6
    27b2:	47b8      	blx	r7
    27b4:	e00a      	b.n	27cc <udd_ep_transfer_process+0x158>
    27b6:	2201      	movs	r2, #1
    27b8:	7ca3      	ldrb	r3, [r4, #18]
    27ba:	4393      	bics	r3, r2
    27bc:	74a3      	strb	r3, [r4, #18]
    27be:	6823      	ldr	r3, [r4, #0]
    27c0:	2b00      	cmp	r3, #0
    27c2:	d003      	beq.n	27cc <udd_ep_transfer_process+0x158>
    27c4:	2000      	movs	r0, #0
    27c6:	68e1      	ldr	r1, [r4, #12]
    27c8:	1c2a      	adds	r2, r5, #0
    27ca:	4798      	blx	r3
    27cc:	b005      	add	sp, #20
    27ce:	bdf0      	pop	{r4, r5, r6, r7, pc}
    27d0:	00002659 	.word	0x00002659
    27d4:	00001fff 	.word	0x00001fff
    27d8:	0000455d 	.word	0x0000455d
    27dc:	0000437d 	.word	0x0000437d
    27e0:	20000860 	.word	0x20000860
    27e4:	000036d9 	.word	0x000036d9
    27e8:	200007a0 	.word	0x200007a0
    27ec:	0000466d 	.word	0x0000466d
    27f0:	00003725 	.word	0x00003725

000027f4 <udd_ctrl_stall_data>:
    27f4:	2205      	movs	r2, #5
    27f6:	b510      	push	{r4, lr}
    27f8:	4b05      	ldr	r3, [pc, #20]	; (2810 <udd_ctrl_stall_data+0x1c>)
    27fa:	4c06      	ldr	r4, [pc, #24]	; (2814 <udd_ctrl_stall_data+0x20>)
    27fc:	701a      	strb	r2, [r3, #0]
    27fe:	1c20      	adds	r0, r4, #0
    2800:	2180      	movs	r1, #128	; 0x80
    2802:	4b05      	ldr	r3, [pc, #20]	; (2818 <udd_ctrl_stall_data+0x24>)
    2804:	4798      	blx	r3
    2806:	1c20      	adds	r0, r4, #0
    2808:	2100      	movs	r1, #0
    280a:	4b04      	ldr	r3, [pc, #16]	; (281c <udd_ctrl_stall_data+0x28>)
    280c:	4798      	blx	r3
    280e:	bd10      	pop	{r4, pc}
    2810:	20000703 	.word	0x20000703
    2814:	20000860 	.word	0x20000860
    2818:	0000365f 	.word	0x0000365f
    281c:	00003679 	.word	0x00003679

00002820 <_usb_on_bus_reset>:
    2820:	b537      	push	{r0, r1, r2, r4, r5, lr}
    2822:	1c04      	adds	r4, r0, #0
    2824:	4b1d      	ldr	r3, [pc, #116]	; (289c <_usb_on_bus_reset+0x7c>)
    2826:	4798      	blx	r3
    2828:	2380      	movs	r3, #128	; 0x80
    282a:	6822      	ldr	r2, [r4, #0]
    282c:	ad01      	add	r5, sp, #4
    282e:	7293      	strb	r3, [r2, #10]
    2830:	1c28      	adds	r0, r5, #0
    2832:	4b1b      	ldr	r3, [pc, #108]	; (28a0 <_usb_on_bus_reset+0x80>)
    2834:	4798      	blx	r3
    2836:	2303      	movs	r3, #3
    2838:	1c29      	adds	r1, r5, #0
    283a:	706b      	strb	r3, [r5, #1]
    283c:	1c20      	adds	r0, r4, #0
    283e:	4b19      	ldr	r3, [pc, #100]	; (28a4 <_usb_on_bus_reset+0x84>)
    2840:	4798      	blx	r3
    2842:	1c20      	adds	r0, r4, #0
    2844:	4918      	ldr	r1, [pc, #96]	; (28a8 <_usb_on_bus_reset+0x88>)
    2846:	4b19      	ldr	r3, [pc, #100]	; (28ac <_usb_on_bus_reset+0x8c>)
    2848:	4798      	blx	r3
    284a:	4d19      	ldr	r5, [pc, #100]	; (28b0 <_usb_on_bus_reset+0x90>)
    284c:	1c20      	adds	r0, r4, #0
    284e:	2100      	movs	r1, #0
    2850:	2202      	movs	r2, #2
    2852:	4b18      	ldr	r3, [pc, #96]	; (28b4 <_usb_on_bus_reset+0x94>)
    2854:	47a8      	blx	r5
    2856:	2100      	movs	r1, #0
    2858:	1c20      	adds	r0, r4, #0
    285a:	1c0a      	adds	r2, r1, #0
    285c:	4b16      	ldr	r3, [pc, #88]	; (28b8 <_usb_on_bus_reset+0x98>)
    285e:	47a8      	blx	r5
    2860:	4b16      	ldr	r3, [pc, #88]	; (28bc <_usb_on_bus_reset+0x9c>)
    2862:	1c20      	adds	r0, r4, #0
    2864:	2100      	movs	r1, #0
    2866:	2201      	movs	r2, #1
    2868:	47a8      	blx	r5
    286a:	4d15      	ldr	r5, [pc, #84]	; (28c0 <_usb_on_bus_reset+0xa0>)
    286c:	1c20      	adds	r0, r4, #0
    286e:	2100      	movs	r1, #0
    2870:	2202      	movs	r2, #2
    2872:	47a8      	blx	r5
    2874:	2100      	movs	r1, #0
    2876:	1c20      	adds	r0, r4, #0
    2878:	1c0a      	adds	r2, r1, #0
    287a:	47a8      	blx	r5
    287c:	1c20      	adds	r0, r4, #0
    287e:	2100      	movs	r1, #0
    2880:	2201      	movs	r2, #1
    2882:	47a8      	blx	r5
    2884:	6822      	ldr	r2, [r4, #0]
    2886:	4b0f      	ldr	r3, [pc, #60]	; (28c4 <_usb_on_bus_reset+0xa4>)
    2888:	8911      	ldrh	r1, [r2, #8]
    288a:	400b      	ands	r3, r1
    288c:	2180      	movs	r1, #128	; 0x80
    288e:	00c9      	lsls	r1, r1, #3
    2890:	430b      	orrs	r3, r1
    2892:	8113      	strh	r3, [r2, #8]
    2894:	2200      	movs	r2, #0
    2896:	4b0c      	ldr	r3, [pc, #48]	; (28c8 <_usb_on_bus_reset+0xa8>)
    2898:	701a      	strb	r2, [r3, #0]
    289a:	bd37      	pop	{r0, r1, r2, r4, r5, pc}
    289c:	00001079 	.word	0x00001079
    28a0:	00003479 	.word	0x00003479
    28a4:	00003489 	.word	0x00003489
    28a8:	200009e0 	.word	0x200009e0
    28ac:	0000376d 	.word	0x0000376d
    28b0:	00003309 	.word	0x00003309
    28b4:	00002b95 	.word	0x00002b95
    28b8:	00002e21 	.word	0x00002e21
    28bc:	00002909 	.word	0x00002909
    28c0:	00003359 	.word	0x00003359
    28c4:	fffff3ff 	.word	0xfffff3ff
    28c8:	20000703 	.word	0x20000703

000028cc <udd_ctrl_send_zlp_in>:
    28cc:	2203      	movs	r2, #3
    28ce:	b510      	push	{r4, lr}
    28d0:	4b07      	ldr	r3, [pc, #28]	; (28f0 <udd_ctrl_send_zlp_in+0x24>)
    28d2:	4c08      	ldr	r4, [pc, #32]	; (28f4 <udd_ctrl_send_zlp_in+0x28>)
    28d4:	701a      	strb	r2, [r3, #0]
    28d6:	1c20      	adds	r0, r4, #0
    28d8:	4907      	ldr	r1, [pc, #28]	; (28f8 <udd_ctrl_send_zlp_in+0x2c>)
    28da:	4b08      	ldr	r3, [pc, #32]	; (28fc <udd_ctrl_send_zlp_in+0x30>)
    28dc:	4798      	blx	r3
    28de:	2100      	movs	r1, #0
    28e0:	4b07      	ldr	r3, [pc, #28]	; (2900 <udd_ctrl_send_zlp_in+0x34>)
    28e2:	1c20      	adds	r0, r4, #0
    28e4:	689a      	ldr	r2, [r3, #8]
    28e6:	4c07      	ldr	r4, [pc, #28]	; (2904 <udd_ctrl_send_zlp_in+0x38>)
    28e8:	1c0b      	adds	r3, r1, #0
    28ea:	47a0      	blx	r4
    28ec:	bd10      	pop	{r4, pc}
    28ee:	46c0      	nop			; (mov r8, r8)
    28f0:	20000703 	.word	0x20000703
    28f4:	20000860 	.word	0x20000860
    28f8:	200009e0 	.word	0x200009e0
    28fc:	0000376d 	.word	0x0000376d
    2900:	200009c8 	.word	0x200009c8
    2904:	000036d9 	.word	0x000036d9

00002908 <_usb_ep0_on_tansfer_fail>:
    2908:	b508      	push	{r3, lr}
    290a:	7989      	ldrb	r1, [r1, #6]
    290c:	4b0c      	ldr	r3, [pc, #48]	; (2940 <_usb_ep0_on_tansfer_fail+0x38>)
    290e:	b24a      	sxtb	r2, r1
    2910:	2a00      	cmp	r2, #0
    2912:	da08      	bge.n	2926 <_usb_ep0_on_tansfer_fail+0x1e>
    2914:	781b      	ldrb	r3, [r3, #0]
    2916:	2b01      	cmp	r3, #1
    2918:	d102      	bne.n	2920 <_usb_ep0_on_tansfer_fail+0x18>
    291a:	4b0a      	ldr	r3, [pc, #40]	; (2944 <_usb_ep0_on_tansfer_fail+0x3c>)
    291c:	4798      	blx	r3
    291e:	e00d      	b.n	293c <_usb_ep0_on_tansfer_fail+0x34>
    2920:	2b04      	cmp	r3, #4
    2922:	d10b      	bne.n	293c <_usb_ep0_on_tansfer_fail+0x34>
    2924:	e007      	b.n	2936 <_usb_ep0_on_tansfer_fail+0x2e>
    2926:	781a      	ldrb	r2, [r3, #0]
    2928:	2a02      	cmp	r2, #2
    292a:	d102      	bne.n	2932 <_usb_ep0_on_tansfer_fail+0x2a>
    292c:	3202      	adds	r2, #2
    292e:	701a      	strb	r2, [r3, #0]
    2930:	e004      	b.n	293c <_usb_ep0_on_tansfer_fail+0x34>
    2932:	2a03      	cmp	r2, #3
    2934:	d102      	bne.n	293c <_usb_ep0_on_tansfer_fail+0x34>
    2936:	4804      	ldr	r0, [pc, #16]	; (2948 <_usb_ep0_on_tansfer_fail+0x40>)
    2938:	4b04      	ldr	r3, [pc, #16]	; (294c <_usb_ep0_on_tansfer_fail+0x44>)
    293a:	4798      	blx	r3
    293c:	bd08      	pop	{r3, pc}
    293e:	46c0      	nop			; (mov r8, r8)
    2940:	20000703 	.word	0x20000703
    2944:	000028cd 	.word	0x000028cd
    2948:	20000860 	.word	0x20000860
    294c:	0000365f 	.word	0x0000365f

00002950 <udd_ctrl_in_sent>:
    2950:	b5f8      	push	{r3, r4, r5, r6, r7, lr}
    2952:	4d1d      	ldr	r5, [pc, #116]	; (29c8 <udd_ctrl_in_sent+0x78>)
    2954:	4e1d      	ldr	r6, [pc, #116]	; (29cc <udd_ctrl_in_sent+0x7c>)
    2956:	8829      	ldrh	r1, [r5, #0]
    2958:	89b4      	ldrh	r4, [r6, #12]
    295a:	4f1d      	ldr	r7, [pc, #116]	; (29d0 <udd_ctrl_in_sent+0x80>)
    295c:	1a64      	subs	r4, r4, r1
    295e:	b2a4      	uxth	r4, r4
    2960:	2c00      	cmp	r4, #0
    2962:	d11b      	bne.n	299c <udd_ctrl_in_sent+0x4c>
    2964:	4a1b      	ldr	r2, [pc, #108]	; (29d4 <udd_ctrl_in_sent+0x84>)
    2966:	8813      	ldrh	r3, [r2, #0]
    2968:	18cb      	adds	r3, r1, r3
    296a:	b29b      	uxth	r3, r3
    296c:	8013      	strh	r3, [r2, #0]
    296e:	88f2      	ldrh	r2, [r6, #6]
    2970:	429a      	cmp	r2, r3
    2972:	d003      	beq.n	297c <udd_ctrl_in_sent+0x2c>
    2974:	4b18      	ldr	r3, [pc, #96]	; (29d8 <udd_ctrl_in_sent+0x88>)
    2976:	781b      	ldrb	r3, [r3, #0]
    2978:	2b00      	cmp	r3, #0
    297a:	d007      	beq.n	298c <udd_ctrl_in_sent+0x3c>
    297c:	2204      	movs	r2, #4
    297e:	4b17      	ldr	r3, [pc, #92]	; (29dc <udd_ctrl_in_sent+0x8c>)
    2980:	1c38      	adds	r0, r7, #0
    2982:	701a      	strb	r2, [r3, #0]
    2984:	4916      	ldr	r1, [pc, #88]	; (29e0 <udd_ctrl_in_sent+0x90>)
    2986:	4b17      	ldr	r3, [pc, #92]	; (29e4 <udd_ctrl_in_sent+0x94>)
    2988:	4798      	blx	r3
    298a:	e01c      	b.n	29c6 <udd_ctrl_in_sent+0x76>
    298c:	6973      	ldr	r3, [r6, #20]
    298e:	2b00      	cmp	r3, #0
    2990:	d00b      	beq.n	29aa <udd_ctrl_in_sent+0x5a>
    2992:	4798      	blx	r3
    2994:	2800      	cmp	r0, #0
    2996:	d008      	beq.n	29aa <udd_ctrl_in_sent+0x5a>
    2998:	802c      	strh	r4, [r5, #0]
    299a:	89b4      	ldrh	r4, [r6, #12]
    299c:	2c3f      	cmp	r4, #63	; 0x3f
    299e:	d904      	bls.n	29aa <udd_ctrl_in_sent+0x5a>
    29a0:	2200      	movs	r2, #0
    29a2:	4b0d      	ldr	r3, [pc, #52]	; (29d8 <udd_ctrl_in_sent+0x88>)
    29a4:	2440      	movs	r4, #64	; 0x40
    29a6:	701a      	strb	r2, [r3, #0]
    29a8:	e002      	b.n	29b0 <udd_ctrl_in_sent+0x60>
    29aa:	2201      	movs	r2, #1
    29ac:	4b0a      	ldr	r3, [pc, #40]	; (29d8 <udd_ctrl_in_sent+0x88>)
    29ae:	701a      	strb	r2, [r3, #0]
    29b0:	882b      	ldrh	r3, [r5, #0]
    29b2:	68b2      	ldr	r2, [r6, #8]
    29b4:	1c38      	adds	r0, r7, #0
    29b6:	18d2      	adds	r2, r2, r3
    29b8:	2100      	movs	r1, #0
    29ba:	1c23      	adds	r3, r4, #0
    29bc:	4e0a      	ldr	r6, [pc, #40]	; (29e8 <udd_ctrl_in_sent+0x98>)
    29be:	47b0      	blx	r6
    29c0:	882b      	ldrh	r3, [r5, #0]
    29c2:	18e4      	adds	r4, r4, r3
    29c4:	802c      	strh	r4, [r5, #0]
    29c6:	bdf8      	pop	{r3, r4, r5, r6, r7, pc}
    29c8:	20000700 	.word	0x20000700
    29cc:	200009c8 	.word	0x200009c8
    29d0:	20000860 	.word	0x20000860
    29d4:	20000684 	.word	0x20000684
    29d8:	20000702 	.word	0x20000702
    29dc:	20000703 	.word	0x20000703
    29e0:	200009e0 	.word	0x200009e0
    29e4:	0000376d 	.word	0x0000376d
    29e8:	000036d9 	.word	0x000036d9

000029ec <_usb_on_sof_notify>:
    29ec:	b508      	push	{r3, lr}
    29ee:	4b02      	ldr	r3, [pc, #8]	; (29f8 <_usb_on_sof_notify+0xc>)
    29f0:	4798      	blx	r3
    29f2:	4b02      	ldr	r3, [pc, #8]	; (29fc <_usb_on_sof_notify+0x10>)
    29f4:	4798      	blx	r3
    29f6:	bd08      	pop	{r3, pc}
    29f8:	000010bd 	.word	0x000010bd
    29fc:	00003eb9 	.word	0x00003eb9

00002a00 <cpu_irq_restore>:
    2a00:	2800      	cmp	r0, #0
    2a02:	d005      	beq.n	2a10 <cpu_irq_restore+0x10>
    2a04:	2201      	movs	r2, #1
    2a06:	4b03      	ldr	r3, [pc, #12]	; (2a14 <cpu_irq_restore+0x14>)
    2a08:	701a      	strb	r2, [r3, #0]
    2a0a:	f3bf 8f5f 	dmb	sy
    2a0e:	b662      	cpsie	i
    2a10:	4770      	bx	lr
    2a12:	46c0      	nop			; (mov r8, r8)
    2a14:	200000e8 	.word	0x200000e8

00002a18 <udd_sleep_mode>:
    2a18:	b5f0      	push	{r4, r5, r6, r7, lr}
    2a1a:	b085      	sub	sp, #20
    2a1c:	ad03      	add	r5, sp, #12
    2a1e:	2204      	movs	r2, #4
    2a20:	4b16      	ldr	r3, [pc, #88]	; (2a7c <udd_sleep_mode+0x64>)
    2a22:	1c04      	adds	r4, r0, #0
    2a24:	4916      	ldr	r1, [pc, #88]	; (2a80 <udd_sleep_mode+0x68>)
    2a26:	1c28      	adds	r0, r5, #0
    2a28:	4798      	blx	r3
    2a2a:	4b16      	ldr	r3, [pc, #88]	; (2a84 <udd_sleep_mode+0x6c>)
    2a2c:	781a      	ldrb	r2, [r3, #0]
    2a2e:	9301      	str	r3, [sp, #4]
    2a30:	9200      	str	r2, [sp, #0]
    2a32:	42a2      	cmp	r2, r4
    2a34:	d020      	beq.n	2a78 <udd_sleep_mode+0x60>
    2a36:	2c00      	cmp	r4, #0
    2a38:	d00c      	beq.n	2a54 <udd_sleep_mode+0x3c>
    2a3a:	5d2e      	ldrb	r6, [r5, r4]
    2a3c:	4f12      	ldr	r7, [pc, #72]	; (2a88 <udd_sleep_mode+0x70>)
    2a3e:	5dbb      	ldrb	r3, [r7, r6]
    2a40:	2bff      	cmp	r3, #255	; 0xff
    2a42:	d100      	bne.n	2a46 <udd_sleep_mode+0x2e>
    2a44:	e7fe      	b.n	2a44 <udd_sleep_mode+0x2c>
    2a46:	4b11      	ldr	r3, [pc, #68]	; (2a8c <udd_sleep_mode+0x74>)
    2a48:	4798      	blx	r3
    2a4a:	5dbb      	ldrb	r3, [r7, r6]
    2a4c:	3301      	adds	r3, #1
    2a4e:	55bb      	strb	r3, [r7, r6]
    2a50:	4b0f      	ldr	r3, [pc, #60]	; (2a90 <udd_sleep_mode+0x78>)
    2a52:	4798      	blx	r3
    2a54:	9b00      	ldr	r3, [sp, #0]
    2a56:	2b00      	cmp	r3, #0
    2a58:	d00c      	beq.n	2a74 <udd_sleep_mode+0x5c>
    2a5a:	5ced      	ldrb	r5, [r5, r3]
    2a5c:	4e0a      	ldr	r6, [pc, #40]	; (2a88 <udd_sleep_mode+0x70>)
    2a5e:	5d73      	ldrb	r3, [r6, r5]
    2a60:	2b00      	cmp	r3, #0
    2a62:	d100      	bne.n	2a66 <udd_sleep_mode+0x4e>
    2a64:	e7fe      	b.n	2a64 <udd_sleep_mode+0x4c>
    2a66:	4b09      	ldr	r3, [pc, #36]	; (2a8c <udd_sleep_mode+0x74>)
    2a68:	4798      	blx	r3
    2a6a:	5d73      	ldrb	r3, [r6, r5]
    2a6c:	3b01      	subs	r3, #1
    2a6e:	5573      	strb	r3, [r6, r5]
    2a70:	4b07      	ldr	r3, [pc, #28]	; (2a90 <udd_sleep_mode+0x78>)
    2a72:	4798      	blx	r3
    2a74:	9b01      	ldr	r3, [sp, #4]
    2a76:	701c      	strb	r4, [r3, #0]
    2a78:	b005      	add	sp, #20
    2a7a:	bdf0      	pop	{r4, r5, r6, r7, pc}
    2a7c:	0000466d 	.word	0x0000466d
    2a80:	000046fe 	.word	0x000046fe
    2a84:	20000704 	.word	0x20000704
    2a88:	20000740 	.word	0x20000740
    2a8c:	00002635 	.word	0x00002635
    2a90:	00002a01 	.word	0x00002a01

00002a94 <_usb_device_lpm_suspend>:
    2a94:	b570      	push	{r4, r5, r6, lr}
    2a96:	1c0d      	adds	r5, r1, #0
    2a98:	4c0d      	ldr	r4, [pc, #52]	; (2ad0 <_usb_device_lpm_suspend+0x3c>)
    2a9a:	2106      	movs	r1, #6
    2a9c:	4e0d      	ldr	r6, [pc, #52]	; (2ad4 <_usb_device_lpm_suspend+0x40>)
    2a9e:	1c20      	adds	r0, r4, #0
    2aa0:	47b0      	blx	r6
    2aa2:	2104      	movs	r1, #4
    2aa4:	1c20      	adds	r0, r4, #0
    2aa6:	47b0      	blx	r6
    2aa8:	2102      	movs	r1, #2
    2aaa:	4b0b      	ldr	r3, [pc, #44]	; (2ad8 <_usb_device_lpm_suspend+0x44>)
    2aac:	1c20      	adds	r0, r4, #0
    2aae:	4798      	blx	r3
    2ab0:	4b0a      	ldr	r3, [pc, #40]	; (2adc <_usb_device_lpm_suspend+0x48>)
    2ab2:	2002      	movs	r0, #2
    2ab4:	4798      	blx	r3
    2ab6:	682b      	ldr	r3, [r5, #0]
    2ab8:	2b00      	cmp	r3, #0
    2aba:	d001      	beq.n	2ac0 <_usb_device_lpm_suspend+0x2c>
    2abc:	4b08      	ldr	r3, [pc, #32]	; (2ae0 <_usb_device_lpm_suspend+0x4c>)
    2abe:	4798      	blx	r3
    2ac0:	682b      	ldr	r3, [r5, #0]
    2ac2:	2b00      	cmp	r3, #0
    2ac4:	d101      	bne.n	2aca <_usb_device_lpm_suspend+0x36>
    2ac6:	4b07      	ldr	r3, [pc, #28]	; (2ae4 <_usb_device_lpm_suspend+0x50>)
    2ac8:	4798      	blx	r3
    2aca:	4b07      	ldr	r3, [pc, #28]	; (2ae8 <_usb_device_lpm_suspend+0x54>)
    2acc:	4798      	blx	r3
    2ace:	bd70      	pop	{r4, r5, r6, pc}
    2ad0:	20000860 	.word	0x20000860
    2ad4:	000032ed 	.word	0x000032ed
    2ad8:	000032cd 	.word	0x000032cd
    2adc:	00002a19 	.word	0x00002a19
    2ae0:	00003ef1 	.word	0x00003ef1
    2ae4:	00003ee5 	.word	0x00003ee5
    2ae8:	00003ed9 	.word	0x00003ed9

00002aec <_usb_on_suspend>:
    2aec:	b510      	push	{r4, lr}
    2aee:	4c07      	ldr	r4, [pc, #28]	; (2b0c <_usb_on_suspend+0x20>)
    2af0:	2104      	movs	r1, #4
    2af2:	1c20      	adds	r0, r4, #0
    2af4:	4b06      	ldr	r3, [pc, #24]	; (2b10 <_usb_on_suspend+0x24>)
    2af6:	4798      	blx	r3
    2af8:	2102      	movs	r1, #2
    2afa:	1c20      	adds	r0, r4, #0
    2afc:	4b05      	ldr	r3, [pc, #20]	; (2b14 <_usb_on_suspend+0x28>)
    2afe:	4798      	blx	r3
    2b00:	2001      	movs	r0, #1
    2b02:	4b05      	ldr	r3, [pc, #20]	; (2b18 <_usb_on_suspend+0x2c>)
    2b04:	4798      	blx	r3
    2b06:	4b05      	ldr	r3, [pc, #20]	; (2b1c <_usb_on_suspend+0x30>)
    2b08:	4798      	blx	r3
    2b0a:	bd10      	pop	{r4, pc}
    2b0c:	20000860 	.word	0x20000860
    2b10:	000032ed 	.word	0x000032ed
    2b14:	000032cd 	.word	0x000032cd
    2b18:	00002a19 	.word	0x00002a19
    2b1c:	00003ea1 	.word	0x00003ea1

00002b20 <udd_wait_clock_ready>:
    2b20:	4b06      	ldr	r3, [pc, #24]	; (2b3c <udd_wait_clock_ready+0x1c>)
    2b22:	8c9a      	ldrh	r2, [r3, #36]	; 0x24
    2b24:	0692      	lsls	r2, r2, #26
    2b26:	d405      	bmi.n	2b34 <udd_wait_clock_ready+0x14>
    2b28:	22d0      	movs	r2, #208	; 0xd0
    2b2a:	68d9      	ldr	r1, [r3, #12]
    2b2c:	400a      	ands	r2, r1
    2b2e:	2ad0      	cmp	r2, #208	; 0xd0
    2b30:	d1fa      	bne.n	2b28 <udd_wait_clock_ready+0x8>
    2b32:	e002      	b.n	2b3a <udd_wait_clock_ready+0x1a>
    2b34:	68da      	ldr	r2, [r3, #12]
    2b36:	06d2      	lsls	r2, r2, #27
    2b38:	d5fc      	bpl.n	2b34 <udd_wait_clock_ready+0x14>
    2b3a:	4770      	bx	lr
    2b3c:	40000800 	.word	0x40000800

00002b40 <_usb_on_wakeup>:
    2b40:	b538      	push	{r3, r4, r5, lr}
    2b42:	4b0c      	ldr	r3, [pc, #48]	; (2b74 <_usb_on_wakeup+0x34>)
    2b44:	4798      	blx	r3
    2b46:	4c0c      	ldr	r4, [pc, #48]	; (2b78 <_usb_on_wakeup+0x38>)
    2b48:	4b0c      	ldr	r3, [pc, #48]	; (2b7c <_usb_on_wakeup+0x3c>)
    2b4a:	1c20      	adds	r0, r4, #0
    2b4c:	2102      	movs	r1, #2
    2b4e:	4798      	blx	r3
    2b50:	4d0b      	ldr	r5, [pc, #44]	; (2b80 <_usb_on_wakeup+0x40>)
    2b52:	1c20      	adds	r0, r4, #0
    2b54:	2104      	movs	r1, #4
    2b56:	47a8      	blx	r5
    2b58:	4a0a      	ldr	r2, [pc, #40]	; (2b84 <_usb_on_wakeup+0x44>)
    2b5a:	4b0b      	ldr	r3, [pc, #44]	; (2b88 <_usb_on_wakeup+0x48>)
    2b5c:	1c20      	adds	r0, r4, #0
    2b5e:	2106      	movs	r1, #6
    2b60:	4798      	blx	r3
    2b62:	2106      	movs	r1, #6
    2b64:	1c20      	adds	r0, r4, #0
    2b66:	47a8      	blx	r5
    2b68:	2003      	movs	r0, #3
    2b6a:	4b08      	ldr	r3, [pc, #32]	; (2b8c <_usb_on_wakeup+0x4c>)
    2b6c:	4798      	blx	r3
    2b6e:	4b08      	ldr	r3, [pc, #32]	; (2b90 <_usb_on_wakeup+0x50>)
    2b70:	4798      	blx	r3
    2b72:	bd38      	pop	{r3, r4, r5, pc}
    2b74:	00002b21 	.word	0x00002b21
    2b78:	20000860 	.word	0x20000860
    2b7c:	000032ed 	.word	0x000032ed
    2b80:	000032cd 	.word	0x000032cd
    2b84:	00002a95 	.word	0x00002a95
    2b88:	000032ad 	.word	0x000032ad
    2b8c:	00002a19 	.word	0x00002a19
    2b90:	00003ead 	.word	0x00003ead

00002b94 <_usb_ep0_on_setup>:
    2b94:	b570      	push	{r4, r5, r6, lr}
    2b96:	4e27      	ldr	r6, [pc, #156]	; (2c34 <_usb_ep0_on_setup+0xa0>)
    2b98:	1c0c      	adds	r4, r1, #0
    2b9a:	7833      	ldrb	r3, [r6, #0]
    2b9c:	2b00      	cmp	r3, #0
    2b9e:	d006      	beq.n	2bae <_usb_ep0_on_setup+0x1a>
    2ba0:	4b25      	ldr	r3, [pc, #148]	; (2c38 <_usb_ep0_on_setup+0xa4>)
    2ba2:	691b      	ldr	r3, [r3, #16]
    2ba4:	2b00      	cmp	r3, #0
    2ba6:	d000      	beq.n	2baa <_usb_ep0_on_setup+0x16>
    2ba8:	4798      	blx	r3
    2baa:	2300      	movs	r3, #0
    2bac:	7033      	strb	r3, [r6, #0]
    2bae:	8823      	ldrh	r3, [r4, #0]
    2bb0:	2b08      	cmp	r3, #8
    2bb2:	d001      	beq.n	2bb8 <_usb_ep0_on_setup+0x24>
    2bb4:	4b21      	ldr	r3, [pc, #132]	; (2c3c <_usb_ep0_on_setup+0xa8>)
    2bb6:	e02d      	b.n	2c14 <_usb_ep0_on_setup+0x80>
    2bb8:	4c21      	ldr	r4, [pc, #132]	; (2c40 <_usb_ep0_on_setup+0xac>)
    2bba:	4d1f      	ldr	r5, [pc, #124]	; (2c38 <_usb_ep0_on_setup+0xa4>)
    2bbc:	7823      	ldrb	r3, [r4, #0]
    2bbe:	702b      	strb	r3, [r5, #0]
    2bc0:	7863      	ldrb	r3, [r4, #1]
    2bc2:	706b      	strb	r3, [r5, #1]
    2bc4:	78e3      	ldrb	r3, [r4, #3]
    2bc6:	78a2      	ldrb	r2, [r4, #2]
    2bc8:	021b      	lsls	r3, r3, #8
    2bca:	18d3      	adds	r3, r2, r3
    2bcc:	806b      	strh	r3, [r5, #2]
    2bce:	7963      	ldrb	r3, [r4, #5]
    2bd0:	7922      	ldrb	r2, [r4, #4]
    2bd2:	021b      	lsls	r3, r3, #8
    2bd4:	18d3      	adds	r3, r2, r3
    2bd6:	80ab      	strh	r3, [r5, #4]
    2bd8:	79e3      	ldrb	r3, [r4, #7]
    2bda:	79a2      	ldrb	r2, [r4, #6]
    2bdc:	021b      	lsls	r3, r3, #8
    2bde:	18d3      	adds	r3, r2, r3
    2be0:	80eb      	strh	r3, [r5, #6]
    2be2:	4b18      	ldr	r3, [pc, #96]	; (2c44 <_usb_ep0_on_setup+0xb0>)
    2be4:	4798      	blx	r3
    2be6:	2800      	cmp	r0, #0
    2be8:	d0e4      	beq.n	2bb4 <_usb_ep0_on_setup+0x20>
    2bea:	782b      	ldrb	r3, [r5, #0]
    2bec:	2b7f      	cmp	r3, #127	; 0x7f
    2bee:	d90d      	bls.n	2c0c <_usb_ep0_on_setup+0x78>
    2bf0:	2100      	movs	r1, #0
    2bf2:	4b15      	ldr	r3, [pc, #84]	; (2c48 <_usb_ep0_on_setup+0xb4>)
    2bf4:	1c22      	adds	r2, r4, #0
    2bf6:	8019      	strh	r1, [r3, #0]
    2bf8:	4b14      	ldr	r3, [pc, #80]	; (2c4c <_usb_ep0_on_setup+0xb8>)
    2bfa:	4815      	ldr	r0, [pc, #84]	; (2c50 <_usb_ep0_on_setup+0xbc>)
    2bfc:	8019      	strh	r1, [r3, #0]
    2bfe:	2302      	movs	r3, #2
    2c00:	4c14      	ldr	r4, [pc, #80]	; (2c54 <_usb_ep0_on_setup+0xc0>)
    2c02:	7033      	strb	r3, [r6, #0]
    2c04:	333e      	adds	r3, #62	; 0x3e
    2c06:	47a0      	blx	r4
    2c08:	4b13      	ldr	r3, [pc, #76]	; (2c58 <_usb_ep0_on_setup+0xc4>)
    2c0a:	e003      	b.n	2c14 <_usb_ep0_on_setup+0x80>
    2c0c:	88eb      	ldrh	r3, [r5, #6]
    2c0e:	2b00      	cmp	r3, #0
    2c10:	d102      	bne.n	2c18 <_usb_ep0_on_setup+0x84>
    2c12:	4b12      	ldr	r3, [pc, #72]	; (2c5c <_usb_ep0_on_setup+0xc8>)
    2c14:	4798      	blx	r3
    2c16:	e00b      	b.n	2c30 <_usb_ep0_on_setup+0x9c>
    2c18:	2100      	movs	r1, #0
    2c1a:	4b0b      	ldr	r3, [pc, #44]	; (2c48 <_usb_ep0_on_setup+0xb4>)
    2c1c:	1c22      	adds	r2, r4, #0
    2c1e:	8019      	strh	r1, [r3, #0]
    2c20:	4b0a      	ldr	r3, [pc, #40]	; (2c4c <_usb_ep0_on_setup+0xb8>)
    2c22:	480b      	ldr	r0, [pc, #44]	; (2c50 <_usb_ep0_on_setup+0xbc>)
    2c24:	8019      	strh	r1, [r3, #0]
    2c26:	2301      	movs	r3, #1
    2c28:	4c0a      	ldr	r4, [pc, #40]	; (2c54 <_usb_ep0_on_setup+0xc0>)
    2c2a:	7033      	strb	r3, [r6, #0]
    2c2c:	333f      	adds	r3, #63	; 0x3f
    2c2e:	47a0      	blx	r4
    2c30:	bd70      	pop	{r4, r5, r6, pc}
    2c32:	46c0      	nop			; (mov r8, r8)
    2c34:	20000703 	.word	0x20000703
    2c38:	200009c8 	.word	0x200009c8
    2c3c:	000027f5 	.word	0x000027f5
    2c40:	200009e0 	.word	0x200009e0
    2c44:	000010f5 	.word	0x000010f5
    2c48:	20000684 	.word	0x20000684
    2c4c:	20000700 	.word	0x20000700
    2c50:	20000860 	.word	0x20000860
    2c54:	00003725 	.word	0x00003725
    2c58:	00002951 	.word	0x00002951
    2c5c:	000028cd 	.word	0x000028cd

00002c60 <udd_ep_abort>:
    2c60:	b538      	push	{r3, r4, r5, lr}
    2c62:	1c04      	adds	r4, r0, #0
    2c64:	4b0a      	ldr	r3, [pc, #40]	; (2c90 <udd_ep_abort+0x30>)
    2c66:	480b      	ldr	r0, [pc, #44]	; (2c94 <udd_ep_abort+0x34>)
    2c68:	1c21      	adds	r1, r4, #0
    2c6a:	4798      	blx	r3
    2c6c:	4b0a      	ldr	r3, [pc, #40]	; (2c98 <udd_ep_abort+0x38>)
    2c6e:	1c20      	adds	r0, r4, #0
    2c70:	4798      	blx	r3
    2c72:	1c03      	adds	r3, r0, #0
    2c74:	7c82      	ldrb	r2, [r0, #18]
    2c76:	2001      	movs	r0, #1
    2c78:	4202      	tst	r2, r0
    2c7a:	d007      	beq.n	2c8c <udd_ep_abort+0x2c>
    2c7c:	681d      	ldr	r5, [r3, #0]
    2c7e:	4382      	bics	r2, r0
    2c80:	749a      	strb	r2, [r3, #18]
    2c82:	2d00      	cmp	r5, #0
    2c84:	d002      	beq.n	2c8c <udd_ep_abort+0x2c>
    2c86:	68d9      	ldr	r1, [r3, #12]
    2c88:	1c22      	adds	r2, r4, #0
    2c8a:	47a8      	blx	r5
    2c8c:	bd38      	pop	{r3, r4, r5, pc}
    2c8e:	46c0      	nop			; (mov r8, r8)
    2c90:	00003615 	.word	0x00003615
    2c94:	20000860 	.word	0x20000860
    2c98:	00002659 	.word	0x00002659

00002c9c <udd_is_high_speed>:
    2c9c:	2000      	movs	r0, #0
    2c9e:	4770      	bx	lr

00002ca0 <udd_get_frame_number>:
    2ca0:	4b02      	ldr	r3, [pc, #8]	; (2cac <udd_get_frame_number+0xc>)
    2ca2:	681b      	ldr	r3, [r3, #0]
    2ca4:	8a18      	ldrh	r0, [r3, #16]
    2ca6:	0480      	lsls	r0, r0, #18
    2ca8:	0d40      	lsrs	r0, r0, #21
    2caa:	4770      	bx	lr
    2cac:	20000860 	.word	0x20000860

00002cb0 <udd_get_micro_frame_number>:
    2cb0:	4b02      	ldr	r3, [pc, #8]	; (2cbc <udd_get_micro_frame_number+0xc>)
    2cb2:	681b      	ldr	r3, [r3, #0]
    2cb4:	8a18      	ldrh	r0, [r3, #16]
    2cb6:	b280      	uxth	r0, r0
    2cb8:	4770      	bx	lr
    2cba:	46c0      	nop			; (mov r8, r8)
    2cbc:	20000860 	.word	0x20000860

00002cc0 <udd_ep_free>:
    2cc0:	b5f7      	push	{r0, r1, r2, r4, r5, r6, r7, lr}
    2cc2:	1c04      	adds	r4, r0, #0
    2cc4:	2600      	movs	r6, #0
    2cc6:	ad01      	add	r5, sp, #4
    2cc8:	1c28      	adds	r0, r5, #0
    2cca:	4b0c      	ldr	r3, [pc, #48]	; (2cfc <udd_ep_free+0x3c>)
    2ccc:	4798      	blx	r3
    2cce:	1c20      	adds	r0, r4, #0
    2cd0:	4b0b      	ldr	r3, [pc, #44]	; (2d00 <udd_ep_free+0x40>)
    2cd2:	4798      	blx	r3
    2cd4:	4f0b      	ldr	r7, [pc, #44]	; (2d04 <udd_ep_free+0x44>)
    2cd6:	1c29      	adds	r1, r5, #0
    2cd8:	1c38      	adds	r0, r7, #0
    2cda:	4b0b      	ldr	r3, [pc, #44]	; (2d08 <udd_ep_free+0x48>)
    2cdc:	70ee      	strb	r6, [r5, #3]
    2cde:	702c      	strb	r4, [r5, #0]
    2ce0:	4798      	blx	r3
    2ce2:	210f      	movs	r1, #15
    2ce4:	1c32      	adds	r2, r6, #0
    2ce6:	4021      	ands	r1, r4
    2ce8:	1c38      	adds	r0, r7, #0
    2cea:	4b08      	ldr	r3, [pc, #32]	; (2d0c <udd_ep_free+0x4c>)
    2cec:	4798      	blx	r3
    2cee:	1c38      	adds	r0, r7, #0
    2cf0:	1c32      	adds	r2, r6, #0
    2cf2:	1c21      	adds	r1, r4, #0
    2cf4:	4b06      	ldr	r3, [pc, #24]	; (2d10 <udd_ep_free+0x50>)
    2cf6:	4798      	blx	r3
    2cf8:	bdf7      	pop	{r0, r1, r2, r4, r5, r6, r7, pc}
    2cfa:	46c0      	nop			; (mov r8, r8)
    2cfc:	00003479 	.word	0x00003479
    2d00:	00002c61 	.word	0x00002c61
    2d04:	20000860 	.word	0x20000860
    2d08:	00003489 	.word	0x00003489
    2d0c:	00003331 	.word	0x00003331
    2d10:	000033e9 	.word	0x000033e9

00002d14 <udd_ep_alloc>:
    2d14:	b5f7      	push	{r0, r1, r2, r4, r5, r6, r7, lr}
    2d16:	1c06      	adds	r6, r0, #0
    2d18:	ac01      	add	r4, sp, #4
    2d1a:	4b29      	ldr	r3, [pc, #164]	; (2dc0 <udd_ep_alloc+0xac>)
    2d1c:	1c20      	adds	r0, r4, #0
    2d1e:	1c0f      	adds	r7, r1, #0
    2d20:	1c15      	adds	r5, r2, #0
    2d22:	4798      	blx	r3
    2d24:	7026      	strb	r6, [r4, #0]
    2d26:	2300      	movs	r3, #0
    2d28:	2d08      	cmp	r5, #8
    2d2a:	d91e      	bls.n	2d6a <udd_ep_alloc+0x56>
    2d2c:	2301      	movs	r3, #1
    2d2e:	2d10      	cmp	r5, #16
    2d30:	d91b      	bls.n	2d6a <udd_ep_alloc+0x56>
    2d32:	2302      	movs	r3, #2
    2d34:	2d20      	cmp	r5, #32
    2d36:	d918      	bls.n	2d6a <udd_ep_alloc+0x56>
    2d38:	2303      	movs	r3, #3
    2d3a:	2d40      	cmp	r5, #64	; 0x40
    2d3c:	d915      	bls.n	2d6a <udd_ep_alloc+0x56>
    2d3e:	2304      	movs	r3, #4
    2d40:	2d80      	cmp	r5, #128	; 0x80
    2d42:	d912      	bls.n	2d6a <udd_ep_alloc+0x56>
    2d44:	2380      	movs	r3, #128	; 0x80
    2d46:	005b      	lsls	r3, r3, #1
    2d48:	429d      	cmp	r5, r3
    2d4a:	d801      	bhi.n	2d50 <udd_ep_alloc+0x3c>
    2d4c:	3bfb      	subs	r3, #251	; 0xfb
    2d4e:	e00c      	b.n	2d6a <udd_ep_alloc+0x56>
    2d50:	2380      	movs	r3, #128	; 0x80
    2d52:	009b      	lsls	r3, r3, #2
    2d54:	429d      	cmp	r5, r3
    2d56:	d802      	bhi.n	2d5e <udd_ep_alloc+0x4a>
    2d58:	3bfb      	subs	r3, #251	; 0xfb
    2d5a:	3bff      	subs	r3, #255	; 0xff
    2d5c:	e005      	b.n	2d6a <udd_ep_alloc+0x56>
    2d5e:	4b19      	ldr	r3, [pc, #100]	; (2dc4 <udd_ep_alloc+0xb0>)
    2d60:	429d      	cmp	r5, r3
    2d62:	d901      	bls.n	2d68 <udd_ep_alloc+0x54>
    2d64:	2000      	movs	r0, #0
    2d66:	e02a      	b.n	2dbe <udd_ep_alloc+0xaa>
    2d68:	2307      	movs	r3, #7
    2d6a:	7063      	strb	r3, [r4, #1]
    2d6c:	1c30      	adds	r0, r6, #0
    2d6e:	4b16      	ldr	r3, [pc, #88]	; (2dc8 <udd_ep_alloc+0xb4>)
    2d70:	4798      	blx	r3
    2d72:	2303      	movs	r3, #3
    2d74:	1c39      	adds	r1, r7, #0
    2d76:	8205      	strh	r5, [r0, #16]
    2d78:	4019      	ands	r1, r3
    2d7a:	2901      	cmp	r1, #1
    2d7c:	d101      	bne.n	2d82 <udd_ep_alloc+0x6e>
    2d7e:	3b01      	subs	r3, #1
    2d80:	e004      	b.n	2d8c <udd_ep_alloc+0x78>
    2d82:	2902      	cmp	r1, #2
    2d84:	d002      	beq.n	2d8c <udd_ep_alloc+0x78>
    2d86:	2903      	cmp	r1, #3
    2d88:	d1ec      	bne.n	2d64 <udd_ep_alloc+0x50>
    2d8a:	2304      	movs	r3, #4
    2d8c:	4d0f      	ldr	r5, [pc, #60]	; (2dcc <udd_ep_alloc+0xb8>)
    2d8e:	70e3      	strb	r3, [r4, #3]
    2d90:	1c21      	adds	r1, r4, #0
    2d92:	1c28      	adds	r0, r5, #0
    2d94:	4b0e      	ldr	r3, [pc, #56]	; (2dd0 <udd_ep_alloc+0xbc>)
    2d96:	4798      	blx	r3
    2d98:	1e04      	subs	r4, r0, #0
    2d9a:	d1e3      	bne.n	2d64 <udd_ep_alloc+0x50>
    2d9c:	210f      	movs	r1, #15
    2d9e:	1c22      	adds	r2, r4, #0
    2da0:	4b0c      	ldr	r3, [pc, #48]	; (2dd4 <udd_ep_alloc+0xc0>)
    2da2:	4031      	ands	r1, r6
    2da4:	1c28      	adds	r0, r5, #0
    2da6:	4f0c      	ldr	r7, [pc, #48]	; (2dd8 <udd_ep_alloc+0xc4>)
    2da8:	47b8      	blx	r7
    2daa:	1c22      	adds	r2, r4, #0
    2dac:	1c31      	adds	r1, r6, #0
    2dae:	4c0b      	ldr	r4, [pc, #44]	; (2ddc <udd_ep_alloc+0xc8>)
    2db0:	1c28      	adds	r0, r5, #0
    2db2:	47a0      	blx	r4
    2db4:	1c28      	adds	r0, r5, #0
    2db6:	1c31      	adds	r1, r6, #0
    2db8:	2201      	movs	r2, #1
    2dba:	47a0      	blx	r4
    2dbc:	2001      	movs	r0, #1
    2dbe:	bdfe      	pop	{r1, r2, r3, r4, r5, r6, r7, pc}
    2dc0:	00003479 	.word	0x00003479
    2dc4:	000003ff 	.word	0x000003ff
    2dc8:	00002659 	.word	0x00002659
    2dcc:	20000860 	.word	0x20000860
    2dd0:	00003489 	.word	0x00003489
    2dd4:	00002675 	.word	0x00002675
    2dd8:	00003309 	.word	0x00003309
    2ddc:	00003359 	.word	0x00003359

00002de0 <udd_ep_is_halted>:
    2de0:	b508      	push	{r3, lr}
    2de2:	1c01      	adds	r1, r0, #0
    2de4:	4b01      	ldr	r3, [pc, #4]	; (2dec <udd_ep_is_halted+0xc>)
    2de6:	4802      	ldr	r0, [pc, #8]	; (2df0 <udd_ep_is_halted+0x10>)
    2de8:	4798      	blx	r3
    2dea:	bd08      	pop	{r3, pc}
    2dec:	00003641 	.word	0x00003641
    2df0:	20000860 	.word	0x20000860

00002df4 <udd_ep_set_halt>:
    2df4:	230f      	movs	r3, #15
    2df6:	b510      	push	{r4, lr}
    2df8:	4003      	ands	r3, r0
    2dfa:	1c04      	adds	r4, r0, #0
    2dfc:	2000      	movs	r0, #0
    2dfe:	2b03      	cmp	r3, #3
    2e00:	d807      	bhi.n	2e12 <udd_ep_set_halt+0x1e>
    2e02:	4804      	ldr	r0, [pc, #16]	; (2e14 <udd_ep_set_halt+0x20>)
    2e04:	1c21      	adds	r1, r4, #0
    2e06:	4b04      	ldr	r3, [pc, #16]	; (2e18 <udd_ep_set_halt+0x24>)
    2e08:	4798      	blx	r3
    2e0a:	1c20      	adds	r0, r4, #0
    2e0c:	4b03      	ldr	r3, [pc, #12]	; (2e1c <udd_ep_set_halt+0x28>)
    2e0e:	4798      	blx	r3
    2e10:	2001      	movs	r0, #1
    2e12:	bd10      	pop	{r4, pc}
    2e14:	20000860 	.word	0x20000860
    2e18:	0000365f 	.word	0x0000365f
    2e1c:	00002c61 	.word	0x00002c61

00002e20 <_usb_ep0_on_tansfer_ok>:
    2e20:	b5f7      	push	{r0, r1, r2, r4, r5, r6, r7, lr}
    2e22:	4a2b      	ldr	r2, [pc, #172]	; (2ed0 <_usb_ep0_on_tansfer_ok+0xb0>)
    2e24:	7813      	ldrb	r3, [r2, #0]
    2e26:	9201      	str	r2, [sp, #4]
    2e28:	2b01      	cmp	r3, #1
    2e2a:	d142      	bne.n	2eb2 <_usb_ep0_on_tansfer_ok+0x92>
    2e2c:	4a29      	ldr	r2, [pc, #164]	; (2ed4 <_usb_ep0_on_tansfer_ok+0xb4>)
    2e2e:	4d2a      	ldr	r5, [pc, #168]	; (2ed8 <_usb_ep0_on_tansfer_ok+0xb8>)
    2e30:	880e      	ldrh	r6, [r1, #0]
    2e32:	8814      	ldrh	r4, [r2, #0]
    2e34:	89ab      	ldrh	r3, [r5, #12]
    2e36:	19a2      	adds	r2, r4, r6
    2e38:	4293      	cmp	r3, r2
    2e3a:	da01      	bge.n	2e40 <_usb_ep0_on_tansfer_ok+0x20>
    2e3c:	1b1e      	subs	r6, r3, r4
    2e3e:	b2b6      	uxth	r6, r6
    2e40:	68ab      	ldr	r3, [r5, #8]
    2e42:	4f26      	ldr	r7, [pc, #152]	; (2edc <_usb_ep0_on_tansfer_ok+0xbc>)
    2e44:	1918      	adds	r0, r3, r4
    2e46:	1c39      	adds	r1, r7, #0
    2e48:	4b25      	ldr	r3, [pc, #148]	; (2ee0 <_usb_ep0_on_tansfer_ok+0xc0>)
    2e4a:	1934      	adds	r4, r6, r4
    2e4c:	1c32      	adds	r2, r6, #0
    2e4e:	4798      	blx	r3
    2e50:	b2a3      	uxth	r3, r4
    2e52:	4c20      	ldr	r4, [pc, #128]	; (2ed4 <_usb_ep0_on_tansfer_ok+0xb4>)
    2e54:	8023      	strh	r3, [r4, #0]
    2e56:	2e40      	cmp	r6, #64	; 0x40
    2e58:	d105      	bne.n	2e66 <_usb_ep0_on_tansfer_ok+0x46>
    2e5a:	4e22      	ldr	r6, [pc, #136]	; (2ee4 <_usb_ep0_on_tansfer_ok+0xc4>)
    2e5c:	88e9      	ldrh	r1, [r5, #6]
    2e5e:	8832      	ldrh	r2, [r6, #0]
    2e60:	18d2      	adds	r2, r2, r3
    2e62:	4291      	cmp	r1, r2
    2e64:	dc0f      	bgt.n	2e86 <_usb_ep0_on_tansfer_ok+0x66>
    2e66:	81ab      	strh	r3, [r5, #12]
    2e68:	696b      	ldr	r3, [r5, #20]
    2e6a:	2b00      	cmp	r3, #0
    2e6c:	d009      	beq.n	2e82 <_usb_ep0_on_tansfer_ok+0x62>
    2e6e:	4798      	blx	r3
    2e70:	2800      	cmp	r0, #0
    2e72:	d106      	bne.n	2e82 <_usb_ep0_on_tansfer_ok+0x62>
    2e74:	2305      	movs	r3, #5
    2e76:	9a01      	ldr	r2, [sp, #4]
    2e78:	2000      	movs	r0, #0
    2e7a:	7013      	strb	r3, [r2, #0]
    2e7c:	4b1a      	ldr	r3, [pc, #104]	; (2ee8 <_usb_ep0_on_tansfer_ok+0xc8>)
    2e7e:	4798      	blx	r3
    2e80:	e024      	b.n	2ecc <_usb_ep0_on_tansfer_ok+0xac>
    2e82:	4b1a      	ldr	r3, [pc, #104]	; (2eec <_usb_ep0_on_tansfer_ok+0xcc>)
    2e84:	e018      	b.n	2eb8 <_usb_ep0_on_tansfer_ok+0x98>
    2e86:	89aa      	ldrh	r2, [r5, #12]
    2e88:	429a      	cmp	r2, r3
    2e8a:	d10b      	bne.n	2ea4 <_usb_ep0_on_tansfer_ok+0x84>
    2e8c:	696b      	ldr	r3, [r5, #20]
    2e8e:	2b00      	cmp	r3, #0
    2e90:	d0f0      	beq.n	2e74 <_usb_ep0_on_tansfer_ok+0x54>
    2e92:	4798      	blx	r3
    2e94:	2800      	cmp	r0, #0
    2e96:	d0ed      	beq.n	2e74 <_usb_ep0_on_tansfer_ok+0x54>
    2e98:	8822      	ldrh	r2, [r4, #0]
    2e9a:	8833      	ldrh	r3, [r6, #0]
    2e9c:	18d3      	adds	r3, r2, r3
    2e9e:	8033      	strh	r3, [r6, #0]
    2ea0:	2300      	movs	r3, #0
    2ea2:	8023      	strh	r3, [r4, #0]
    2ea4:	2100      	movs	r1, #0
    2ea6:	1c3a      	adds	r2, r7, #0
    2ea8:	2340      	movs	r3, #64	; 0x40
    2eaa:	4c11      	ldr	r4, [pc, #68]	; (2ef0 <_usb_ep0_on_tansfer_ok+0xd0>)
    2eac:	4811      	ldr	r0, [pc, #68]	; (2ef4 <_usb_ep0_on_tansfer_ok+0xd4>)
    2eae:	47a0      	blx	r4
    2eb0:	e00c      	b.n	2ecc <_usb_ep0_on_tansfer_ok+0xac>
    2eb2:	2b02      	cmp	r3, #2
    2eb4:	d102      	bne.n	2ebc <_usb_ep0_on_tansfer_ok+0x9c>
    2eb6:	4b10      	ldr	r3, [pc, #64]	; (2ef8 <_usb_ep0_on_tansfer_ok+0xd8>)
    2eb8:	4798      	blx	r3
    2eba:	e007      	b.n	2ecc <_usb_ep0_on_tansfer_ok+0xac>
    2ebc:	4b06      	ldr	r3, [pc, #24]	; (2ed8 <_usb_ep0_on_tansfer_ok+0xb8>)
    2ebe:	691b      	ldr	r3, [r3, #16]
    2ec0:	2b00      	cmp	r3, #0
    2ec2:	d000      	beq.n	2ec6 <_usb_ep0_on_tansfer_ok+0xa6>
    2ec4:	4798      	blx	r3
    2ec6:	2300      	movs	r3, #0
    2ec8:	9a01      	ldr	r2, [sp, #4]
    2eca:	7013      	strb	r3, [r2, #0]
    2ecc:	bdf7      	pop	{r0, r1, r2, r4, r5, r6, r7, pc}
    2ece:	46c0      	nop			; (mov r8, r8)
    2ed0:	20000703 	.word	0x20000703
    2ed4:	20000700 	.word	0x20000700
    2ed8:	200009c8 	.word	0x200009c8
    2edc:	200009e0 	.word	0x200009e0
    2ee0:	0000466d 	.word	0x0000466d
    2ee4:	20000684 	.word	0x20000684
    2ee8:	00002df5 	.word	0x00002df5
    2eec:	000028cd 	.word	0x000028cd
    2ef0:	00003725 	.word	0x00003725
    2ef4:	20000860 	.word	0x20000860
    2ef8:	00002951 	.word	0x00002951

00002efc <udd_ep_clear_halt>:
    2efc:	b538      	push	{r3, r4, r5, lr}
    2efe:	230f      	movs	r3, #15
    2f00:	2400      	movs	r4, #0
    2f02:	4003      	ands	r3, r0
    2f04:	2b03      	cmp	r3, #3
    2f06:	d80f      	bhi.n	2f28 <udd_ep_clear_halt+0x2c>
    2f08:	4b08      	ldr	r3, [pc, #32]	; (2f2c <udd_ep_clear_halt+0x30>)
    2f0a:	1c04      	adds	r4, r0, #0
    2f0c:	4798      	blx	r3
    2f0e:	1c05      	adds	r5, r0, #0
    2f10:	1c21      	adds	r1, r4, #0
    2f12:	2401      	movs	r4, #1
    2f14:	4b06      	ldr	r3, [pc, #24]	; (2f30 <udd_ep_clear_halt+0x34>)
    2f16:	4807      	ldr	r0, [pc, #28]	; (2f34 <udd_ep_clear_halt+0x38>)
    2f18:	4798      	blx	r3
    2f1a:	7cab      	ldrb	r3, [r5, #18]
    2f1c:	4223      	tst	r3, r4
    2f1e:	d003      	beq.n	2f28 <udd_ep_clear_halt+0x2c>
    2f20:	43a3      	bics	r3, r4
    2f22:	74ab      	strb	r3, [r5, #18]
    2f24:	682b      	ldr	r3, [r5, #0]
    2f26:	4798      	blx	r3
    2f28:	1c20      	adds	r0, r4, #0
    2f2a:	bd38      	pop	{r3, r4, r5, pc}
    2f2c:	00002659 	.word	0x00002659
    2f30:	00003679 	.word	0x00003679
    2f34:	20000860 	.word	0x20000860

00002f38 <udd_ep_run>:
    2f38:	b5f0      	push	{r4, r5, r6, r7, lr}
    2f3a:	1c1d      	adds	r5, r3, #0
    2f3c:	230f      	movs	r3, #15
    2f3e:	b085      	sub	sp, #20
    2f40:	4003      	ands	r3, r0
    2f42:	1c07      	adds	r7, r0, #0
    2f44:	9103      	str	r1, [sp, #12]
    2f46:	9201      	str	r2, [sp, #4]
    2f48:	9300      	str	r3, [sp, #0]
    2f4a:	2b03      	cmp	r3, #3
    2f4c:	d901      	bls.n	2f52 <udd_ep_run+0x1a>
    2f4e:	2600      	movs	r6, #0
    2f50:	e092      	b.n	3078 <udd_ep_run+0x140>
    2f52:	4b4b      	ldr	r3, [pc, #300]	; (3080 <udd_ep_run+0x148>)
    2f54:	4798      	blx	r3
    2f56:	1e06      	subs	r6, r0, #0
    2f58:	d1f9      	bne.n	2f4e <udd_ep_run+0x16>
    2f5a:	4b4a      	ldr	r3, [pc, #296]	; (3084 <udd_ep_run+0x14c>)
    2f5c:	1c38      	adds	r0, r7, #0
    2f5e:	4798      	blx	r3
    2f60:	1c04      	adds	r4, r0, #0
    2f62:	4b49      	ldr	r3, [pc, #292]	; (3088 <udd_ep_run+0x150>)
    2f64:	4798      	blx	r3
    2f66:	2201      	movs	r2, #1
    2f68:	7ca3      	ldrb	r3, [r4, #18]
    2f6a:	401a      	ands	r2, r3
    2f6c:	9202      	str	r2, [sp, #8]
    2f6e:	9902      	ldr	r1, [sp, #8]
    2f70:	4a46      	ldr	r2, [pc, #280]	; (308c <udd_ep_run+0x154>)
    2f72:	2900      	cmp	r1, #0
    2f74:	d001      	beq.n	2f7a <udd_ep_run+0x42>
    2f76:	4790      	blx	r2
    2f78:	e07e      	b.n	3078 <udd_ep_run+0x140>
    2f7a:	2101      	movs	r1, #1
    2f7c:	430b      	orrs	r3, r1
    2f7e:	74a3      	strb	r3, [r4, #18]
    2f80:	4790      	blx	r2
    2f82:	2201      	movs	r2, #1
    2f84:	2102      	movs	r1, #2
    2f86:	9b01      	ldr	r3, [sp, #4]
    2f88:	60a5      	str	r5, [r4, #8]
    2f8a:	6063      	str	r3, [r4, #4]
    2f8c:	9b02      	ldr	r3, [sp, #8]
    2f8e:	60e3      	str	r3, [r4, #12]
    2f90:	9b0a      	ldr	r3, [sp, #40]	; 0x28
    2f92:	6023      	str	r3, [r4, #0]
    2f94:	9b03      	ldr	r3, [sp, #12]
    2f96:	4013      	ands	r3, r2
    2f98:	005a      	lsls	r2, r3, #1
    2f9a:	7ca3      	ldrb	r3, [r4, #18]
    2f9c:	438b      	bics	r3, r1
    2f9e:	4313      	orrs	r3, r2
    2fa0:	2204      	movs	r2, #4
    2fa2:	4393      	bics	r3, r2
    2fa4:	74a3      	strb	r3, [r4, #18]
    2fa6:	b27b      	sxtb	r3, r7
    2fa8:	2b00      	cmp	r3, #0
    2faa:	da36      	bge.n	301a <udd_ep_run+0xe2>
    2fac:	7ca6      	ldrb	r6, [r4, #18]
    2fae:	2d00      	cmp	r5, #0
    2fb0:	d01a      	beq.n	2fe8 <udd_ep_run+0xb0>
    2fb2:	4f37      	ldr	r7, [pc, #220]	; (3090 <udd_ep_run+0x158>)
    2fb4:	b2ad      	uxth	r5, r5
    2fb6:	42bd      	cmp	r5, r7
    2fb8:	d905      	bls.n	2fc6 <udd_ep_run+0x8e>
    2fba:	8a21      	ldrh	r1, [r4, #16]
    2fbc:	1c38      	adds	r0, r7, #0
    2fbe:	4b35      	ldr	r3, [pc, #212]	; (3094 <udd_ep_run+0x15c>)
    2fc0:	4798      	blx	r3
    2fc2:	1a7d      	subs	r5, r7, r1
    2fc4:	b2ad      	uxth	r5, r5
    2fc6:	2100      	movs	r1, #0
    2fc8:	07b3      	lsls	r3, r6, #30
    2fca:	d506      	bpl.n	2fda <udd_ep_run+0xa2>
    2fcc:	4b32      	ldr	r3, [pc, #200]	; (3098 <udd_ep_run+0x160>)
    2fce:	8a21      	ldrh	r1, [r4, #16]
    2fd0:	1c28      	adds	r0, r5, #0
    2fd2:	4798      	blx	r3
    2fd4:	b289      	uxth	r1, r1
    2fd6:	424b      	negs	r3, r1
    2fd8:	4159      	adcs	r1, r3
    2fda:	2202      	movs	r2, #2
    2fdc:	7ca3      	ldrb	r3, [r4, #18]
    2fde:	0049      	lsls	r1, r1, #1
    2fe0:	4393      	bics	r3, r2
    2fe2:	4319      	orrs	r1, r3
    2fe4:	74a1      	strb	r1, [r4, #18]
    2fe6:	e011      	b.n	300c <udd_ep_run+0xd4>
    2fe8:	420e      	tst	r6, r1
    2fea:	d002      	beq.n	2ff2 <udd_ep_run+0xba>
    2fec:	438e      	bics	r6, r1
    2fee:	74a6      	strb	r6, [r4, #18]
    2ff0:	e00c      	b.n	300c <udd_ep_run+0xd4>
    2ff2:	2301      	movs	r3, #1
    2ff4:	439e      	bics	r6, r3
    2ff6:	74a6      	strb	r6, [r4, #18]
    2ff8:	9b0a      	ldr	r3, [sp, #40]	; 0x28
    2ffa:	2b00      	cmp	r3, #0
    2ffc:	d004      	beq.n	3008 <udd_ep_run+0xd0>
    2ffe:	2000      	movs	r0, #0
    3000:	1c3a      	adds	r2, r7, #0
    3002:	1c01      	adds	r1, r0, #0
    3004:	9b0a      	ldr	r3, [sp, #40]	; 0x28
    3006:	4798      	blx	r3
    3008:	2601      	movs	r6, #1
    300a:	e035      	b.n	3078 <udd_ep_run+0x140>
    300c:	9900      	ldr	r1, [sp, #0]
    300e:	9a01      	ldr	r2, [sp, #4]
    3010:	1c2b      	adds	r3, r5, #0
    3012:	4c22      	ldr	r4, [pc, #136]	; (309c <udd_ep_run+0x164>)
    3014:	4822      	ldr	r0, [pc, #136]	; (30a0 <udd_ep_run+0x168>)
    3016:	47a0      	blx	r4
    3018:	e025      	b.n	3066 <udd_ep_run+0x12e>
    301a:	2d00      	cmp	r5, #0
    301c:	d027      	beq.n	306e <udd_ep_run+0x136>
    301e:	4e1c      	ldr	r6, [pc, #112]	; (3090 <udd_ep_run+0x158>)
    3020:	b2ad      	uxth	r5, r5
    3022:	8a27      	ldrh	r7, [r4, #16]
    3024:	42b5      	cmp	r5, r6
    3026:	d905      	bls.n	3034 <udd_ep_run+0xfc>
    3028:	4b1a      	ldr	r3, [pc, #104]	; (3094 <udd_ep_run+0x15c>)
    302a:	1c30      	adds	r0, r6, #0
    302c:	1c39      	adds	r1, r7, #0
    302e:	4798      	blx	r3
    3030:	1a73      	subs	r3, r6, r1
    3032:	e004      	b.n	303e <udd_ep_run+0x106>
    3034:	4b18      	ldr	r3, [pc, #96]	; (3098 <udd_ep_run+0x160>)
    3036:	1c28      	adds	r0, r5, #0
    3038:	1c39      	adds	r1, r7, #0
    303a:	4798      	blx	r3
    303c:	1a6b      	subs	r3, r5, r1
    303e:	b29b      	uxth	r3, r3
    3040:	4817      	ldr	r0, [pc, #92]	; (30a0 <udd_ep_run+0x168>)
    3042:	4e18      	ldr	r6, [pc, #96]	; (30a4 <udd_ep_run+0x16c>)
    3044:	42bb      	cmp	r3, r7
    3046:	d20b      	bcs.n	3060 <udd_ep_run+0x128>
    3048:	2204      	movs	r2, #4
    304a:	7ca3      	ldrb	r3, [r4, #18]
    304c:	9900      	ldr	r1, [sp, #0]
    304e:	4313      	orrs	r3, r2
    3050:	74a3      	strb	r3, [r4, #18]
    3052:	9b00      	ldr	r3, [sp, #0]
    3054:	1e5a      	subs	r2, r3, #1
    3056:	4b14      	ldr	r3, [pc, #80]	; (30a8 <udd_ep_run+0x170>)
    3058:	0192      	lsls	r2, r2, #6
    305a:	18d2      	adds	r2, r2, r3
    305c:	1c3b      	adds	r3, r7, #0
    305e:	e001      	b.n	3064 <udd_ep_run+0x12c>
    3060:	9900      	ldr	r1, [sp, #0]
    3062:	9a01      	ldr	r2, [sp, #4]
    3064:	47b0      	blx	r6
    3066:	4246      	negs	r6, r0
    3068:	4146      	adcs	r6, r0
    306a:	b2f6      	uxtb	r6, r6
    306c:	e004      	b.n	3078 <udd_ep_run+0x140>
    306e:	2201      	movs	r2, #1
    3070:	7ca3      	ldrb	r3, [r4, #18]
    3072:	4393      	bics	r3, r2
    3074:	74a3      	strb	r3, [r4, #18]
    3076:	e7bf      	b.n	2ff8 <udd_ep_run+0xc0>
    3078:	1c30      	adds	r0, r6, #0
    307a:	b005      	add	sp, #20
    307c:	bdf0      	pop	{r4, r5, r6, r7, pc}
    307e:	46c0      	nop			; (mov r8, r8)
    3080:	00002de1 	.word	0x00002de1
    3084:	00002659 	.word	0x00002659
    3088:	00002635 	.word	0x00002635
    308c:	00002a01 	.word	0x00002a01
    3090:	00001fff 	.word	0x00001fff
    3094:	0000455d 	.word	0x0000455d
    3098:	0000437d 	.word	0x0000437d
    309c:	000036d9 	.word	0x000036d9
    30a0:	20000860 	.word	0x20000860
    30a4:	00003725 	.word	0x00003725
    30a8:	200007a0 	.word	0x200007a0

000030ac <udd_set_address>:
    30ac:	4b02      	ldr	r3, [pc, #8]	; (30b8 <udd_set_address+0xc>)
    30ae:	681a      	ldr	r2, [r3, #0]
    30b0:	2380      	movs	r3, #128	; 0x80
    30b2:	4318      	orrs	r0, r3
    30b4:	7290      	strb	r0, [r2, #10]
    30b6:	4770      	bx	lr
    30b8:	20000860 	.word	0x20000860

000030bc <udd_getaddress>:
    30bc:	4b02      	ldr	r3, [pc, #8]	; (30c8 <udd_getaddress+0xc>)
    30be:	681b      	ldr	r3, [r3, #0]
    30c0:	7a98      	ldrb	r0, [r3, #10]
    30c2:	237f      	movs	r3, #127	; 0x7f
    30c4:	4018      	ands	r0, r3
    30c6:	4770      	bx	lr
    30c8:	20000860 	.word	0x20000860

000030cc <udd_send_remotewakeup>:
    30cc:	b508      	push	{r3, lr}
    30ce:	4b0a      	ldr	r3, [pc, #40]	; (30f8 <udd_send_remotewakeup+0x2c>)
    30d0:	4798      	blx	r3
    30d2:	4b0a      	ldr	r3, [pc, #40]	; (30fc <udd_send_remotewakeup+0x30>)
    30d4:	2003      	movs	r0, #3
    30d6:	4798      	blx	r3
    30d8:	4b09      	ldr	r3, [pc, #36]	; (3100 <udd_send_remotewakeup+0x34>)
    30da:	681a      	ldr	r2, [r3, #0]
    30dc:	2306      	movs	r3, #6
    30de:	7b51      	ldrb	r1, [r2, #13]
    30e0:	2902      	cmp	r1, #2
    30e2:	d007      	beq.n	30f4 <udd_send_remotewakeup+0x28>
    30e4:	3b01      	subs	r3, #1
    30e6:	2b00      	cmp	r3, #0
    30e8:	d004      	beq.n	30f4 <udd_send_remotewakeup+0x28>
    30ea:	2002      	movs	r0, #2
    30ec:	8911      	ldrh	r1, [r2, #8]
    30ee:	4301      	orrs	r1, r0
    30f0:	8111      	strh	r1, [r2, #8]
    30f2:	e7f4      	b.n	30de <udd_send_remotewakeup+0x12>
    30f4:	bd08      	pop	{r3, pc}
    30f6:	46c0      	nop			; (mov r8, r8)
    30f8:	00002b21 	.word	0x00002b21
    30fc:	00002a19 	.word	0x00002a19
    3100:	20000860 	.word	0x20000860

00003104 <udd_set_setup_payload>:
    3104:	4b01      	ldr	r3, [pc, #4]	; (310c <udd_set_setup_payload+0x8>)
    3106:	6098      	str	r0, [r3, #8]
    3108:	8199      	strh	r1, [r3, #12]
    310a:	4770      	bx	lr
    310c:	200009c8 	.word	0x200009c8

00003110 <udd_detach>:
    3110:	2001      	movs	r0, #1
    3112:	b508      	push	{r3, lr}
    3114:	4b03      	ldr	r3, [pc, #12]	; (3124 <udd_detach+0x14>)
    3116:	681a      	ldr	r2, [r3, #0]
    3118:	8913      	ldrh	r3, [r2, #8]
    311a:	4303      	orrs	r3, r0
    311c:	8113      	strh	r3, [r2, #8]
    311e:	4b02      	ldr	r3, [pc, #8]	; (3128 <udd_detach+0x18>)
    3120:	4798      	blx	r3
    3122:	bd08      	pop	{r3, pc}
    3124:	20000860 	.word	0x20000860
    3128:	00002a19 	.word	0x00002a19

0000312c <udd_attach>:
    312c:	b5f8      	push	{r3, r4, r5, r6, r7, lr}
    312e:	2701      	movs	r7, #1
    3130:	2003      	movs	r0, #3
    3132:	4b16      	ldr	r3, [pc, #88]	; (318c <udd_attach+0x60>)
    3134:	4798      	blx	r3
    3136:	4c16      	ldr	r4, [pc, #88]	; (3190 <udd_attach+0x64>)
    3138:	4e16      	ldr	r6, [pc, #88]	; (3194 <udd_attach+0x68>)
    313a:	6822      	ldr	r2, [r4, #0]
    313c:	1c20      	adds	r0, r4, #0
    313e:	8913      	ldrh	r3, [r2, #8]
    3140:	2104      	movs	r1, #4
    3142:	43bb      	bics	r3, r7
    3144:	8113      	strh	r3, [r2, #8]
    3146:	4a14      	ldr	r2, [pc, #80]	; (3198 <udd_attach+0x6c>)
    3148:	47b0      	blx	r6
    314a:	1c20      	adds	r0, r4, #0
    314c:	2100      	movs	r1, #0
    314e:	4a13      	ldr	r2, [pc, #76]	; (319c <udd_attach+0x70>)
    3150:	47b0      	blx	r6
    3152:	1c39      	adds	r1, r7, #0
    3154:	1c20      	adds	r0, r4, #0
    3156:	4a12      	ldr	r2, [pc, #72]	; (31a0 <udd_attach+0x74>)
    3158:	47b0      	blx	r6
    315a:	4a12      	ldr	r2, [pc, #72]	; (31a4 <udd_attach+0x78>)
    315c:	1c20      	adds	r0, r4, #0
    315e:	2102      	movs	r1, #2
    3160:	47b0      	blx	r6
    3162:	4d11      	ldr	r5, [pc, #68]	; (31a8 <udd_attach+0x7c>)
    3164:	1c20      	adds	r0, r4, #0
    3166:	2104      	movs	r1, #4
    3168:	47a8      	blx	r5
    316a:	1c20      	adds	r0, r4, #0
    316c:	2100      	movs	r1, #0
    316e:	47a8      	blx	r5
    3170:	1c39      	adds	r1, r7, #0
    3172:	1c20      	adds	r0, r4, #0
    3174:	47a8      	blx	r5
    3176:	1c20      	adds	r0, r4, #0
    3178:	2102      	movs	r1, #2
    317a:	47a8      	blx	r5
    317c:	4a0b      	ldr	r2, [pc, #44]	; (31ac <udd_attach+0x80>)
    317e:	1c20      	adds	r0, r4, #0
    3180:	2106      	movs	r1, #6
    3182:	47b0      	blx	r6
    3184:	1c20      	adds	r0, r4, #0
    3186:	2106      	movs	r1, #6
    3188:	47a8      	blx	r5
    318a:	bdf8      	pop	{r3, r4, r5, r6, r7, pc}
    318c:	00002a19 	.word	0x00002a19
    3190:	20000860 	.word	0x20000860
    3194:	000032ad 	.word	0x000032ad
    3198:	00002aed 	.word	0x00002aed
    319c:	000029ed 	.word	0x000029ed
    31a0:	00002821 	.word	0x00002821
    31a4:	00002b41 	.word	0x00002b41
    31a8:	000032cd 	.word	0x000032cd
    31ac:	00002a95 	.word	0x00002a95

000031b0 <_uhd_vbus_handler>:
    31b0:	b508      	push	{r3, lr}
    31b2:	200e      	movs	r0, #14
    31b4:	4b07      	ldr	r3, [pc, #28]	; (31d4 <_uhd_vbus_handler+0x24>)
    31b6:	2100      	movs	r1, #0
    31b8:	4798      	blx	r3
    31ba:	4b07      	ldr	r3, [pc, #28]	; (31d8 <_uhd_vbus_handler+0x28>)
    31bc:	6a1b      	ldr	r3, [r3, #32]
    31be:	045b      	lsls	r3, r3, #17
    31c0:	d501      	bpl.n	31c6 <_uhd_vbus_handler+0x16>
    31c2:	4b06      	ldr	r3, [pc, #24]	; (31dc <_uhd_vbus_handler+0x2c>)
    31c4:	e000      	b.n	31c8 <_uhd_vbus_handler+0x18>
    31c6:	4b06      	ldr	r3, [pc, #24]	; (31e0 <_uhd_vbus_handler+0x30>)
    31c8:	4798      	blx	r3
    31ca:	200e      	movs	r0, #14
    31cc:	2100      	movs	r1, #0
    31ce:	4b05      	ldr	r3, [pc, #20]	; (31e4 <_uhd_vbus_handler+0x34>)
    31d0:	4798      	blx	r3
    31d2:	bd08      	pop	{r3, pc}
    31d4:	00001561 	.word	0x00001561
    31d8:	41004400 	.word	0x41004400
    31dc:	0000312d 	.word	0x0000312d
    31e0:	00003111 	.word	0x00003111
    31e4:	0000153d 	.word	0x0000153d

000031e8 <udd_enable>:
    31e8:	b5f0      	push	{r4, r5, r6, r7, lr}
    31ea:	4b20      	ldr	r3, [pc, #128]	; (326c <udd_enable+0x84>)
    31ec:	b085      	sub	sp, #20
    31ee:	4798      	blx	r3
    31f0:	4b1f      	ldr	r3, [pc, #124]	; (3270 <udd_enable+0x88>)
    31f2:	1c07      	adds	r7, r0, #0
    31f4:	4668      	mov	r0, sp
    31f6:	4798      	blx	r3
    31f8:	2400      	movs	r4, #0
    31fa:	466b      	mov	r3, sp
    31fc:	4d1d      	ldr	r5, [pc, #116]	; (3274 <udd_enable+0x8c>)
    31fe:	466a      	mov	r2, sp
    3200:	491d      	ldr	r1, [pc, #116]	; (3278 <udd_enable+0x90>)
    3202:	1c28      	adds	r0, r5, #0
    3204:	709c      	strb	r4, [r3, #2]
    3206:	4b1d      	ldr	r3, [pc, #116]	; (327c <udd_enable+0x94>)
    3208:	4798      	blx	r3
    320a:	1c28      	adds	r0, r5, #0
    320c:	4b1c      	ldr	r3, [pc, #112]	; (3280 <udd_enable+0x98>)
    320e:	4798      	blx	r3
    3210:	4b1c      	ldr	r3, [pc, #112]	; (3284 <udd_enable+0x9c>)
    3212:	ad01      	add	r5, sp, #4
    3214:	4798      	blx	r3
    3216:	2001      	movs	r0, #1
    3218:	4b1b      	ldr	r3, [pc, #108]	; (3288 <udd_enable+0xa0>)
    321a:	4798      	blx	r3
    321c:	1c28      	adds	r0, r5, #0
    321e:	4b1b      	ldr	r3, [pc, #108]	; (328c <udd_enable+0xa4>)
    3220:	4798      	blx	r3
    3222:	2303      	movs	r3, #3
    3224:	260e      	movs	r6, #14
    3226:	72eb      	strb	r3, [r5, #11]
    3228:	3b02      	subs	r3, #2
    322a:	72ab      	strb	r3, [r5, #10]
    322c:	1c21      	adds	r1, r4, #0
    322e:	4b18      	ldr	r3, [pc, #96]	; (3290 <udd_enable+0xa8>)
    3230:	1c30      	adds	r0, r6, #0
    3232:	606c      	str	r4, [r5, #4]
    3234:	722c      	strb	r4, [r5, #8]
    3236:	9601      	str	r6, [sp, #4]
    3238:	4798      	blx	r3
    323a:	1c29      	adds	r1, r5, #0
    323c:	1c30      	adds	r0, r6, #0
    323e:	4b15      	ldr	r3, [pc, #84]	; (3294 <udd_enable+0xac>)
    3240:	4798      	blx	r3
    3242:	4d15      	ldr	r5, [pc, #84]	; (3298 <udd_enable+0xb0>)
    3244:	1c31      	adds	r1, r6, #0
    3246:	1c22      	adds	r2, r4, #0
    3248:	4b14      	ldr	r3, [pc, #80]	; (329c <udd_enable+0xb4>)
    324a:	1c28      	adds	r0, r5, #0
    324c:	4798      	blx	r3
    324e:	4b14      	ldr	r3, [pc, #80]	; (32a0 <udd_enable+0xb8>)
    3250:	1c30      	adds	r0, r6, #0
    3252:	1c21      	adds	r1, r4, #0
    3254:	4798      	blx	r3
    3256:	4b13      	ldr	r3, [pc, #76]	; (32a4 <udd_enable+0xbc>)
    3258:	6a1b      	ldr	r3, [r3, #32]
    325a:	045b      	lsls	r3, r3, #17
    325c:	d500      	bpl.n	3260 <udd_enable+0x78>
    325e:	47a8      	blx	r5
    3260:	1c38      	adds	r0, r7, #0
    3262:	4b11      	ldr	r3, [pc, #68]	; (32a8 <udd_enable+0xc0>)
    3264:	4798      	blx	r3
    3266:	b005      	add	sp, #20
    3268:	bdf0      	pop	{r4, r5, r6, r7, pc}
    326a:	46c0      	nop			; (mov r8, r8)
    326c:	00002635 	.word	0x00002635
    3270:	00003b71 	.word	0x00003b71
    3274:	20000860 	.word	0x20000860
    3278:	41005000 	.word	0x41005000
    327c:	00003b81 	.word	0x00003b81
    3280:	0000379d 	.word	0x0000379d
    3284:	00002b21 	.word	0x00002b21
    3288:	00002a19 	.word	0x00002a19
    328c:	00001659 	.word	0x00001659
    3290:	00001561 	.word	0x00001561
    3294:	0000166d 	.word	0x0000166d
    3298:	000031b1 	.word	0x000031b1
    329c:	00001515 	.word	0x00001515
    32a0:	0000153d 	.word	0x0000153d
    32a4:	41004400 	.word	0x41004400
    32a8:	00002a01 	.word	0x00002a01

000032ac <usb_device_register_callback>:
    32ac:	1c0b      	adds	r3, r1, #0
    32ae:	332e      	adds	r3, #46	; 0x2e
    32b0:	009b      	lsls	r3, r3, #2
    32b2:	501a      	str	r2, [r3, r0]
    32b4:	22aa      	movs	r2, #170	; 0xaa
    32b6:	4b04      	ldr	r3, [pc, #16]	; (32c8 <usb_device_register_callback+0x1c>)
    32b8:	0052      	lsls	r2, r2, #1
    32ba:	0049      	lsls	r1, r1, #1
    32bc:	5ac9      	ldrh	r1, [r1, r3]
    32be:	5a83      	ldrh	r3, [r0, r2]
    32c0:	430b      	orrs	r3, r1
    32c2:	5283      	strh	r3, [r0, r2]
    32c4:	2000      	movs	r0, #0
    32c6:	4770      	bx	lr
    32c8:	00004702 	.word	0x00004702

000032cc <usb_device_enable_callback>:
    32cc:	4b06      	ldr	r3, [pc, #24]	; (32e8 <usb_device_enable_callback+0x1c>)
    32ce:	0049      	lsls	r1, r1, #1
    32d0:	5acb      	ldrh	r3, [r1, r3]
    32d2:	21ab      	movs	r1, #171	; 0xab
    32d4:	6802      	ldr	r2, [r0, #0]
    32d6:	0049      	lsls	r1, r1, #1
    32d8:	8393      	strh	r3, [r2, #28]
    32da:	5a42      	ldrh	r2, [r0, r1]
    32dc:	431a      	orrs	r2, r3
    32de:	5242      	strh	r2, [r0, r1]
    32e0:	6802      	ldr	r2, [r0, #0]
    32e2:	2000      	movs	r0, #0
    32e4:	8313      	strh	r3, [r2, #24]
    32e6:	4770      	bx	lr
    32e8:	00004702 	.word	0x00004702

000032ec <usb_device_disable_callback>:
    32ec:	4b05      	ldr	r3, [pc, #20]	; (3304 <usb_device_disable_callback+0x18>)
    32ee:	0049      	lsls	r1, r1, #1
    32f0:	5aca      	ldrh	r2, [r1, r3]
    32f2:	21ab      	movs	r1, #171	; 0xab
    32f4:	0049      	lsls	r1, r1, #1
    32f6:	5a43      	ldrh	r3, [r0, r1]
    32f8:	4393      	bics	r3, r2
    32fa:	5243      	strh	r3, [r0, r1]
    32fc:	6803      	ldr	r3, [r0, #0]
    32fe:	2000      	movs	r0, #0
    3300:	829a      	strh	r2, [r3, #20]
    3302:	4770      	bx	lr
    3304:	00004702 	.word	0x00004702

00003308 <usb_device_endpoint_register_callback>:
    3308:	b510      	push	{r4, lr}
    330a:	008c      	lsls	r4, r1, #2
    330c:	18a4      	adds	r4, r4, r2
    330e:	3434      	adds	r4, #52	; 0x34
    3310:	00a4      	lsls	r4, r4, #2
    3312:	1904      	adds	r4, r0, r4
    3314:	1840      	adds	r0, r0, r1
    3316:	6063      	str	r3, [r4, #4]
    3318:	3059      	adds	r0, #89	; 0x59
    331a:	4b04      	ldr	r3, [pc, #16]	; (332c <usb_device_endpoint_register_callback+0x24>)
    331c:	30ff      	adds	r0, #255	; 0xff
    331e:	7801      	ldrb	r1, [r0, #0]
    3320:	5c9b      	ldrb	r3, [r3, r2]
    3322:	430b      	orrs	r3, r1
    3324:	7003      	strb	r3, [r0, #0]
    3326:	2000      	movs	r0, #0
    3328:	bd10      	pop	{r4, pc}
    332a:	46c0      	nop			; (mov r8, r8)
    332c:	00004710 	.word	0x00004710

00003330 <usb_device_endpoint_unregister_callback>:
    3330:	b510      	push	{r4, lr}
    3332:	2400      	movs	r4, #0
    3334:	008b      	lsls	r3, r1, #2
    3336:	189b      	adds	r3, r3, r2
    3338:	3334      	adds	r3, #52	; 0x34
    333a:	009b      	lsls	r3, r3, #2
    333c:	18c3      	adds	r3, r0, r3
    333e:	1841      	adds	r1, r0, r1
    3340:	605c      	str	r4, [r3, #4]
    3342:	3159      	adds	r1, #89	; 0x59
    3344:	4b03      	ldr	r3, [pc, #12]	; (3354 <usb_device_endpoint_unregister_callback+0x24>)
    3346:	31ff      	adds	r1, #255	; 0xff
    3348:	5c9a      	ldrb	r2, [r3, r2]
    334a:	780b      	ldrb	r3, [r1, #0]
    334c:	1c20      	adds	r0, r4, #0
    334e:	4393      	bics	r3, r2
    3350:	700b      	strb	r3, [r1, #0]
    3352:	bd10      	pop	{r4, pc}
    3354:	00004710 	.word	0x00004710

00003358 <usb_device_endpoint_enable_callback>:
    3358:	230f      	movs	r3, #15
    335a:	b570      	push	{r4, r5, r6, lr}
    335c:	400b      	ands	r3, r1
    335e:	18c4      	adds	r4, r0, r3
    3360:	3461      	adds	r4, #97	; 0x61
    3362:	4d20      	ldr	r5, [pc, #128]	; (33e4 <usb_device_endpoint_enable_callback+0x8c>)
    3364:	34ff      	adds	r4, #255	; 0xff
    3366:	7826      	ldrb	r6, [r4, #0]
    3368:	5cad      	ldrb	r5, [r5, r2]
    336a:	4335      	orrs	r5, r6
    336c:	7025      	strb	r5, [r4, #0]
    336e:	2a00      	cmp	r2, #0
    3370:	d10f      	bne.n	3392 <usb_device_endpoint_enable_callback+0x3a>
    3372:	6802      	ldr	r2, [r0, #0]
    3374:	2b00      	cmp	r3, #0
    3376:	d103      	bne.n	3380 <usb_device_endpoint_enable_callback+0x28>
    3378:	1c13      	adds	r3, r2, #0
    337a:	2203      	movs	r2, #3
    337c:	33ff      	adds	r3, #255	; 0xff
    337e:	e02d      	b.n	33dc <usb_device_endpoint_enable_callback+0x84>
    3380:	015b      	lsls	r3, r3, #5
    3382:	18d3      	adds	r3, r2, r3
    3384:	b249      	sxtb	r1, r1
    3386:	33ff      	adds	r3, #255	; 0xff
    3388:	2202      	movs	r2, #2
    338a:	2900      	cmp	r1, #0
    338c:	db26      	blt.n	33dc <usb_device_endpoint_enable_callback+0x84>
    338e:	2201      	movs	r2, #1
    3390:	e024      	b.n	33dc <usb_device_endpoint_enable_callback+0x84>
    3392:	2a01      	cmp	r2, #1
    3394:	d10f      	bne.n	33b6 <usb_device_endpoint_enable_callback+0x5e>
    3396:	6802      	ldr	r2, [r0, #0]
    3398:	2b00      	cmp	r3, #0
    339a:	d103      	bne.n	33a4 <usb_device_endpoint_enable_callback+0x4c>
    339c:	1c13      	adds	r3, r2, #0
    339e:	220c      	movs	r2, #12
    33a0:	33ff      	adds	r3, #255	; 0xff
    33a2:	e01b      	b.n	33dc <usb_device_endpoint_enable_callback+0x84>
    33a4:	015b      	lsls	r3, r3, #5
    33a6:	18d3      	adds	r3, r2, r3
    33a8:	b249      	sxtb	r1, r1
    33aa:	33ff      	adds	r3, #255	; 0xff
    33ac:	2208      	movs	r2, #8
    33ae:	2900      	cmp	r1, #0
    33b0:	db14      	blt.n	33dc <usb_device_endpoint_enable_callback+0x84>
    33b2:	2204      	movs	r2, #4
    33b4:	e012      	b.n	33dc <usb_device_endpoint_enable_callback+0x84>
    33b6:	2a02      	cmp	r2, #2
    33b8:	d105      	bne.n	33c6 <usb_device_endpoint_enable_callback+0x6e>
    33ba:	6802      	ldr	r2, [r0, #0]
    33bc:	015b      	lsls	r3, r3, #5
    33be:	18d3      	adds	r3, r2, r3
    33c0:	33ff      	adds	r3, #255	; 0xff
    33c2:	2210      	movs	r2, #16
    33c4:	e00a      	b.n	33dc <usb_device_endpoint_enable_callback+0x84>
    33c6:	2a03      	cmp	r2, #3
    33c8:	d109      	bne.n	33de <usb_device_endpoint_enable_callback+0x86>
    33ca:	6802      	ldr	r2, [r0, #0]
    33cc:	015b      	lsls	r3, r3, #5
    33ce:	18d3      	adds	r3, r2, r3
    33d0:	b249      	sxtb	r1, r1
    33d2:	33ff      	adds	r3, #255	; 0xff
    33d4:	2240      	movs	r2, #64	; 0x40
    33d6:	2900      	cmp	r1, #0
    33d8:	db00      	blt.n	33dc <usb_device_endpoint_enable_callback+0x84>
    33da:	2220      	movs	r2, #32
    33dc:	729a      	strb	r2, [r3, #10]
    33de:	2000      	movs	r0, #0
    33e0:	bd70      	pop	{r4, r5, r6, pc}
    33e2:	46c0      	nop			; (mov r8, r8)
    33e4:	00004710 	.word	0x00004710

000033e8 <usb_device_endpoint_disable_callback>:
    33e8:	230f      	movs	r3, #15
    33ea:	b570      	push	{r4, r5, r6, lr}
    33ec:	400b      	ands	r3, r1
    33ee:	18c4      	adds	r4, r0, r3
    33f0:	4d20      	ldr	r5, [pc, #128]	; (3474 <usb_device_endpoint_disable_callback+0x8c>)
    33f2:	3461      	adds	r4, #97	; 0x61
    33f4:	34ff      	adds	r4, #255	; 0xff
    33f6:	5cae      	ldrb	r6, [r5, r2]
    33f8:	7825      	ldrb	r5, [r4, #0]
    33fa:	43b5      	bics	r5, r6
    33fc:	7025      	strb	r5, [r4, #0]
    33fe:	2a00      	cmp	r2, #0
    3400:	d10f      	bne.n	3422 <usb_device_endpoint_disable_callback+0x3a>
    3402:	6802      	ldr	r2, [r0, #0]
    3404:	2b00      	cmp	r3, #0
    3406:	d103      	bne.n	3410 <usb_device_endpoint_disable_callback+0x28>
    3408:	1c13      	adds	r3, r2, #0
    340a:	2203      	movs	r2, #3
    340c:	33ff      	adds	r3, #255	; 0xff
    340e:	e02d      	b.n	346c <usb_device_endpoint_disable_callback+0x84>
    3410:	015b      	lsls	r3, r3, #5
    3412:	18d3      	adds	r3, r2, r3
    3414:	b249      	sxtb	r1, r1
    3416:	33ff      	adds	r3, #255	; 0xff
    3418:	2202      	movs	r2, #2
    341a:	2900      	cmp	r1, #0
    341c:	db26      	blt.n	346c <usb_device_endpoint_disable_callback+0x84>
    341e:	2201      	movs	r2, #1
    3420:	e024      	b.n	346c <usb_device_endpoint_disable_callback+0x84>
    3422:	2a01      	cmp	r2, #1
    3424:	d10f      	bne.n	3446 <usb_device_endpoint_disable_callback+0x5e>
    3426:	6802      	ldr	r2, [r0, #0]
    3428:	2b00      	cmp	r3, #0
    342a:	d103      	bne.n	3434 <usb_device_endpoint_disable_callback+0x4c>
    342c:	1c13      	adds	r3, r2, #0
    342e:	220c      	movs	r2, #12
    3430:	33ff      	adds	r3, #255	; 0xff
    3432:	e01b      	b.n	346c <usb_device_endpoint_disable_callback+0x84>
    3434:	015b      	lsls	r3, r3, #5
    3436:	18d3      	adds	r3, r2, r3
    3438:	b249      	sxtb	r1, r1
    343a:	33ff      	adds	r3, #255	; 0xff
    343c:	2208      	movs	r2, #8
    343e:	2900      	cmp	r1, #0
    3440:	db14      	blt.n	346c <usb_device_endpoint_disable_callback+0x84>
    3442:	2204      	movs	r2, #4
    3444:	e012      	b.n	346c <usb_device_endpoint_disable_callback+0x84>
    3446:	2a02      	cmp	r2, #2
    3448:	d105      	bne.n	3456 <usb_device_endpoint_disable_callback+0x6e>
    344a:	6802      	ldr	r2, [r0, #0]
    344c:	015b      	lsls	r3, r3, #5
    344e:	18d3      	adds	r3, r2, r3
    3450:	33ff      	adds	r3, #255	; 0xff
    3452:	2210      	movs	r2, #16
    3454:	e00a      	b.n	346c <usb_device_endpoint_disable_callback+0x84>
    3456:	2a03      	cmp	r2, #3
    3458:	d109      	bne.n	346e <usb_device_endpoint_disable_callback+0x86>
    345a:	6802      	ldr	r2, [r0, #0]
    345c:	015b      	lsls	r3, r3, #5
    345e:	18d3      	adds	r3, r2, r3
    3460:	b249      	sxtb	r1, r1
    3462:	33ff      	adds	r3, #255	; 0xff
    3464:	2240      	movs	r2, #64	; 0x40
    3466:	2900      	cmp	r1, #0
    3468:	db00      	blt.n	346c <usb_device_endpoint_disable_callback+0x84>
    346a:	2220      	movs	r2, #32
    346c:	725a      	strb	r2, [r3, #9]
    346e:	2000      	movs	r0, #0
    3470:	bd70      	pop	{r4, r5, r6, pc}
    3472:	46c0      	nop			; (mov r8, r8)
    3474:	00004710 	.word	0x00004710

00003478 <usb_device_endpoint_get_config_defaults>:
    3478:	2300      	movs	r3, #0
    347a:	7003      	strb	r3, [r0, #0]
    347c:	7043      	strb	r3, [r0, #1]
    347e:	7083      	strb	r3, [r0, #2]
    3480:	3301      	adds	r3, #1
    3482:	70c3      	strb	r3, [r0, #3]
    3484:	4770      	bx	lr
	...

00003488 <usb_device_endpoint_set_config>:
    3488:	230f      	movs	r3, #15
    348a:	b5f0      	push	{r4, r5, r6, r7, lr}
    348c:	1c05      	adds	r5, r0, #0
    348e:	780a      	ldrb	r2, [r1, #0]
    3490:	78c8      	ldrb	r0, [r1, #3]
    3492:	4013      	ands	r3, r2
    3494:	09d2      	lsrs	r2, r2, #7
    3496:	2804      	cmp	r0, #4
    3498:	d900      	bls.n	349c <usb_device_endpoint_set_config+0x14>
    349a:	e09b      	b.n	35d4 <usb_device_endpoint_set_config+0x14c>
    349c:	682c      	ldr	r4, [r5, #0]
    349e:	f000 fedd 	bl	425c <__gnu_thumb1_case_uqi>
    34a2:	0803      	.short	0x0803
    34a4:	5d49      	.short	0x5d49
    34a6:	7a          	.byte	0x7a
    34a7:	00          	.byte	0x00
    34a8:	2000      	movs	r0, #0
    34aa:	3308      	adds	r3, #8
    34ac:	015b      	lsls	r3, r3, #5
    34ae:	54e0      	strb	r0, [r4, r3]
    34b0:	e0ab      	b.n	360a <usb_device_endpoint_set_config+0x182>
    34b2:	015e      	lsls	r6, r3, #5
    34b4:	19a4      	adds	r4, r4, r6
    34b6:	34ff      	adds	r4, #255	; 0xff
    34b8:	7862      	ldrb	r2, [r4, #1]
    34ba:	201c      	movs	r0, #28
    34bc:	0752      	lsls	r2, r2, #29
    34be:	d000      	beq.n	34c2 <usb_device_endpoint_set_config+0x3a>
    34c0:	e0a3      	b.n	360a <usb_device_endpoint_set_config+0x182>
    34c2:	2270      	movs	r2, #112	; 0x70
    34c4:	7867      	ldrb	r7, [r4, #1]
    34c6:	4217      	tst	r7, r2
    34c8:	d000      	beq.n	34cc <usb_device_endpoint_set_config+0x44>
    34ca:	e09e      	b.n	360a <usb_device_endpoint_set_config+0x182>
    34cc:	3a5f      	subs	r2, #95	; 0x5f
    34ce:	7062      	strb	r2, [r4, #1]
    34d0:	682a      	ldr	r2, [r5, #0]
    34d2:	3308      	adds	r3, #8
    34d4:	015b      	lsls	r3, r3, #5
    34d6:	18d2      	adds	r2, r2, r3
    34d8:	3024      	adds	r0, #36	; 0x24
    34da:	7150      	strb	r0, [r2, #5]
    34dc:	682a      	ldr	r2, [r5, #0]
    34de:	4c4b      	ldr	r4, [pc, #300]	; (360c <usb_device_endpoint_set_config+0x184>)
    34e0:	18d3      	adds	r3, r2, r3
    34e2:	2280      	movs	r2, #128	; 0x80
    34e4:	711a      	strb	r2, [r3, #4]
    34e6:	788b      	ldrb	r3, [r1, #2]
    34e8:	2b00      	cmp	r3, #0
    34ea:	d008      	beq.n	34fe <usb_device_endpoint_set_config+0x76>
    34ec:	2580      	movs	r5, #128	; 0x80
    34ee:	19a3      	adds	r3, r4, r6
    34f0:	6858      	ldr	r0, [r3, #4]
    34f2:	062d      	lsls	r5, r5, #24
    34f4:	4328      	orrs	r0, r5
    34f6:	6058      	str	r0, [r3, #4]
    34f8:	695a      	ldr	r2, [r3, #20]
    34fa:	432a      	orrs	r2, r5
    34fc:	e007      	b.n	350e <usb_device_endpoint_set_config+0x86>
    34fe:	19a3      	adds	r3, r4, r6
    3500:	685a      	ldr	r2, [r3, #4]
    3502:	0052      	lsls	r2, r2, #1
    3504:	0852      	lsrs	r2, r2, #1
    3506:	605a      	str	r2, [r3, #4]
    3508:	695a      	ldr	r2, [r3, #20]
    350a:	0052      	lsls	r2, r2, #1
    350c:	0852      	lsrs	r2, r2, #1
    350e:	615a      	str	r2, [r3, #20]
    3510:	2207      	movs	r2, #7
    3512:	7848      	ldrb	r0, [r1, #1]
    3514:	19a5      	adds	r5, r4, r6
    3516:	4010      	ands	r0, r2
    3518:	0704      	lsls	r4, r0, #28
    351a:	4e3d      	ldr	r6, [pc, #244]	; (3610 <usb_device_endpoint_set_config+0x188>)
    351c:	6868      	ldr	r0, [r5, #4]
    351e:	4030      	ands	r0, r6
    3520:	4320      	orrs	r0, r4
    3522:	6068      	str	r0, [r5, #4]
    3524:	784b      	ldrb	r3, [r1, #1]
    3526:	401a      	ands	r2, r3
    3528:	696b      	ldr	r3, [r5, #20]
    352a:	0712      	lsls	r2, r2, #28
    352c:	4033      	ands	r3, r6
    352e:	4313      	orrs	r3, r2
    3530:	616b      	str	r3, [r5, #20]
    3532:	e065      	b.n	3600 <usb_device_endpoint_set_config+0x178>
    3534:	0158      	lsls	r0, r3, #5
    3536:	1824      	adds	r4, r4, r0
    3538:	34ff      	adds	r4, #255	; 0xff
    353a:	2a00      	cmp	r2, #0
    353c:	d007      	beq.n	354e <usb_device_endpoint_set_config+0xc6>
    353e:	2670      	movs	r6, #112	; 0x70
    3540:	7867      	ldrb	r7, [r4, #1]
    3542:	201c      	movs	r0, #28
    3544:	4237      	tst	r7, r6
    3546:	d160      	bne.n	360a <usb_device_endpoint_set_config+0x182>
    3548:	7860      	ldrb	r0, [r4, #1]
    354a:	3e50      	subs	r6, #80	; 0x50
    354c:	e012      	b.n	3574 <usb_device_endpoint_set_config+0xec>
    354e:	7866      	ldrb	r6, [r4, #1]
    3550:	201c      	movs	r0, #28
    3552:	0776      	lsls	r6, r6, #29
    3554:	d159      	bne.n	360a <usb_device_endpoint_set_config+0x182>
    3556:	7860      	ldrb	r0, [r4, #1]
    3558:	2602      	movs	r6, #2
    355a:	e032      	b.n	35c2 <usb_device_endpoint_set_config+0x13a>
    355c:	0158      	lsls	r0, r3, #5
    355e:	1824      	adds	r4, r4, r0
    3560:	34ff      	adds	r4, #255	; 0xff
    3562:	2a00      	cmp	r2, #0
    3564:	d010      	beq.n	3588 <usb_device_endpoint_set_config+0x100>
    3566:	2670      	movs	r6, #112	; 0x70
    3568:	7867      	ldrb	r7, [r4, #1]
    356a:	201c      	movs	r0, #28
    356c:	4237      	tst	r7, r6
    356e:	d14c      	bne.n	360a <usb_device_endpoint_set_config+0x182>
    3570:	7860      	ldrb	r0, [r4, #1]
    3572:	3e40      	subs	r6, #64	; 0x40
    3574:	4330      	orrs	r0, r6
    3576:	7060      	strb	r0, [r4, #1]
    3578:	1c18      	adds	r0, r3, #0
    357a:	682c      	ldr	r4, [r5, #0]
    357c:	3008      	adds	r0, #8
    357e:	0140      	lsls	r0, r0, #5
    3580:	1820      	adds	r0, r4, r0
    3582:	2480      	movs	r4, #128	; 0x80
    3584:	7104      	strb	r4, [r0, #4]
    3586:	e025      	b.n	35d4 <usb_device_endpoint_set_config+0x14c>
    3588:	7866      	ldrb	r6, [r4, #1]
    358a:	201c      	movs	r0, #28
    358c:	0776      	lsls	r6, r6, #29
    358e:	d13c      	bne.n	360a <usb_device_endpoint_set_config+0x182>
    3590:	7860      	ldrb	r0, [r4, #1]
    3592:	2603      	movs	r6, #3
    3594:	e015      	b.n	35c2 <usb_device_endpoint_set_config+0x13a>
    3596:	0158      	lsls	r0, r3, #5
    3598:	2a00      	cmp	r2, #0
    359a:	d00a      	beq.n	35b2 <usb_device_endpoint_set_config+0x12a>
    359c:	2670      	movs	r6, #112	; 0x70
    359e:	1820      	adds	r0, r4, r0
    35a0:	30ff      	adds	r0, #255	; 0xff
    35a2:	7847      	ldrb	r7, [r0, #1]
    35a4:	1c04      	adds	r4, r0, #0
    35a6:	201c      	movs	r0, #28
    35a8:	4237      	tst	r7, r6
    35aa:	d12e      	bne.n	360a <usb_device_endpoint_set_config+0x182>
    35ac:	7860      	ldrb	r0, [r4, #1]
    35ae:	3e30      	subs	r6, #48	; 0x30
    35b0:	e7e0      	b.n	3574 <usb_device_endpoint_set_config+0xec>
    35b2:	1824      	adds	r4, r4, r0
    35b4:	34ff      	adds	r4, #255	; 0xff
    35b6:	7866      	ldrb	r6, [r4, #1]
    35b8:	201c      	movs	r0, #28
    35ba:	0776      	lsls	r6, r6, #29
    35bc:	d125      	bne.n	360a <usb_device_endpoint_set_config+0x182>
    35be:	2604      	movs	r6, #4
    35c0:	7860      	ldrb	r0, [r4, #1]
    35c2:	4330      	orrs	r0, r6
    35c4:	7060      	strb	r0, [r4, #1]
    35c6:	1c18      	adds	r0, r3, #0
    35c8:	682c      	ldr	r4, [r5, #0]
    35ca:	3008      	adds	r0, #8
    35cc:	0140      	lsls	r0, r0, #5
    35ce:	1820      	adds	r0, r4, r0
    35d0:	2440      	movs	r4, #64	; 0x40
    35d2:	7144      	strb	r4, [r0, #5]
    35d4:	005b      	lsls	r3, r3, #1
    35d6:	189b      	adds	r3, r3, r2
    35d8:	4a0c      	ldr	r2, [pc, #48]	; (360c <usb_device_endpoint_set_config+0x184>)
    35da:	011b      	lsls	r3, r3, #4
    35dc:	18d3      	adds	r3, r2, r3
    35de:	2207      	movs	r2, #7
    35e0:	7848      	ldrb	r0, [r1, #1]
    35e2:	685c      	ldr	r4, [r3, #4]
    35e4:	4002      	ands	r2, r0
    35e6:	0710      	lsls	r0, r2, #28
    35e8:	4a09      	ldr	r2, [pc, #36]	; (3610 <usb_device_endpoint_set_config+0x188>)
    35ea:	4022      	ands	r2, r4
    35ec:	4302      	orrs	r2, r0
    35ee:	605a      	str	r2, [r3, #4]
    35f0:	7888      	ldrb	r0, [r1, #2]
    35f2:	685a      	ldr	r2, [r3, #4]
    35f4:	2800      	cmp	r0, #0
    35f6:	d005      	beq.n	3604 <usb_device_endpoint_set_config+0x17c>
    35f8:	2180      	movs	r1, #128	; 0x80
    35fa:	0609      	lsls	r1, r1, #24
    35fc:	430a      	orrs	r2, r1
    35fe:	605a      	str	r2, [r3, #4]
    3600:	2000      	movs	r0, #0
    3602:	e002      	b.n	360a <usb_device_endpoint_set_config+0x182>
    3604:	0052      	lsls	r2, r2, #1
    3606:	0852      	lsrs	r2, r2, #1
    3608:	605a      	str	r2, [r3, #4]
    360a:	bdf0      	pop	{r4, r5, r6, r7, pc}
    360c:	20000a20 	.word	0x20000a20
    3610:	8fffffff 	.word	0x8fffffff

00003614 <usb_device_endpoint_abort_job>:
    3614:	230f      	movs	r3, #15
    3616:	400b      	ands	r3, r1
    3618:	6802      	ldr	r2, [r0, #0]
    361a:	3308      	adds	r3, #8
    361c:	015b      	lsls	r3, r3, #5
    361e:	b249      	sxtb	r1, r1
    3620:	18d2      	adds	r2, r2, r3
    3622:	2900      	cmp	r1, #0
    3624:	da05      	bge.n	3632 <usb_device_endpoint_abort_job+0x1e>
    3626:	2180      	movs	r1, #128	; 0x80
    3628:	7111      	strb	r1, [r2, #4]
    362a:	6802      	ldr	r2, [r0, #0]
    362c:	18d3      	adds	r3, r2, r3
    362e:	2202      	movs	r2, #2
    3630:	e004      	b.n	363c <usb_device_endpoint_abort_job+0x28>
    3632:	2140      	movs	r1, #64	; 0x40
    3634:	7151      	strb	r1, [r2, #5]
    3636:	6802      	ldr	r2, [r0, #0]
    3638:	18d3      	adds	r3, r2, r3
    363a:	2201      	movs	r2, #1
    363c:	71da      	strb	r2, [r3, #7]
    363e:	4770      	bx	lr

00003640 <usb_device_endpoint_is_halted>:
    3640:	230f      	movs	r3, #15
    3642:	400b      	ands	r3, r1
    3644:	6802      	ldr	r2, [r0, #0]
    3646:	3308      	adds	r3, #8
    3648:	015b      	lsls	r3, r3, #5
    364a:	18d3      	adds	r3, r2, r3
    364c:	b249      	sxtb	r1, r1
    364e:	7998      	ldrb	r0, [r3, #6]
    3650:	2900      	cmp	r1, #0
    3652:	da01      	bge.n	3658 <usb_device_endpoint_is_halted+0x18>
    3654:	0680      	lsls	r0, r0, #26
    3656:	e000      	b.n	365a <usb_device_endpoint_is_halted+0x1a>
    3658:	06c0      	lsls	r0, r0, #27
    365a:	0fc0      	lsrs	r0, r0, #31
    365c:	4770      	bx	lr

0000365e <usb_device_endpoint_set_halt>:
    365e:	230f      	movs	r3, #15
    3660:	400b      	ands	r3, r1
    3662:	6802      	ldr	r2, [r0, #0]
    3664:	3308      	adds	r3, #8
    3666:	015b      	lsls	r3, r3, #5
    3668:	b249      	sxtb	r1, r1
    366a:	18d3      	adds	r3, r2, r3
    366c:	2220      	movs	r2, #32
    366e:	2900      	cmp	r1, #0
    3670:	db00      	blt.n	3674 <usb_device_endpoint_set_halt+0x16>
    3672:	2210      	movs	r2, #16
    3674:	715a      	strb	r2, [r3, #5]
    3676:	4770      	bx	lr

00003678 <usb_device_endpoint_clear_halt>:
    3678:	230f      	movs	r3, #15
    367a:	b530      	push	{r4, r5, lr}
    367c:	400b      	ands	r3, r1
    367e:	6802      	ldr	r2, [r0, #0]
    3680:	015c      	lsls	r4, r3, #5
    3682:	1912      	adds	r2, r2, r4
    3684:	32ff      	adds	r2, #255	; 0xff
    3686:	b249      	sxtb	r1, r1
    3688:	79d5      	ldrb	r5, [r2, #7]
    368a:	2900      	cmp	r1, #0
    368c:	da11      	bge.n	36b2 <usb_device_endpoint_clear_halt+0x3a>
    368e:	2120      	movs	r1, #32
    3690:	420d      	tst	r5, r1
    3692:	d020      	beq.n	36d6 <usb_device_endpoint_clear_halt+0x5e>
    3694:	7151      	strb	r1, [r2, #5]
    3696:	6802      	ldr	r2, [r0, #0]
    3698:	1914      	adds	r4, r2, r4
    369a:	2240      	movs	r2, #64	; 0x40
    369c:	34ff      	adds	r4, #255	; 0xff
    369e:	7a21      	ldrb	r1, [r4, #8]
    36a0:	4211      	tst	r1, r2
    36a2:	d018      	beq.n	36d6 <usb_device_endpoint_clear_halt+0x5e>
    36a4:	7222      	strb	r2, [r4, #8]
    36a6:	6802      	ldr	r2, [r0, #0]
    36a8:	3308      	adds	r3, #8
    36aa:	015b      	lsls	r3, r3, #5
    36ac:	18d3      	adds	r3, r2, r3
    36ae:	2202      	movs	r2, #2
    36b0:	e010      	b.n	36d4 <usb_device_endpoint_clear_halt+0x5c>
    36b2:	2110      	movs	r1, #16
    36b4:	420d      	tst	r5, r1
    36b6:	d00e      	beq.n	36d6 <usb_device_endpoint_clear_halt+0x5e>
    36b8:	7151      	strb	r1, [r2, #5]
    36ba:	6802      	ldr	r2, [r0, #0]
    36bc:	1914      	adds	r4, r2, r4
    36be:	2220      	movs	r2, #32
    36c0:	34ff      	adds	r4, #255	; 0xff
    36c2:	7a21      	ldrb	r1, [r4, #8]
    36c4:	4211      	tst	r1, r2
    36c6:	d006      	beq.n	36d6 <usb_device_endpoint_clear_halt+0x5e>
    36c8:	7222      	strb	r2, [r4, #8]
    36ca:	6802      	ldr	r2, [r0, #0]
    36cc:	3308      	adds	r3, #8
    36ce:	015b      	lsls	r3, r3, #5
    36d0:	18d3      	adds	r3, r2, r3
    36d2:	2201      	movs	r2, #1
    36d4:	711a      	strb	r2, [r3, #4]
    36d6:	bd30      	pop	{r4, r5, pc}

000036d8 <usb_device_endpoint_write_buffer_job>:
    36d8:	b570      	push	{r4, r5, r6, lr}
    36da:	1c0c      	adds	r4, r1, #0
    36dc:	6805      	ldr	r5, [r0, #0]
    36de:	3408      	adds	r4, #8
    36e0:	0164      	lsls	r4, r4, #5
    36e2:	5d65      	ldrb	r5, [r4, r5]
    36e4:	261c      	movs	r6, #28
    36e6:	066d      	lsls	r5, r5, #25
    36e8:	0f6d      	lsrs	r5, r5, #29
    36ea:	d014      	beq.n	3716 <usb_device_endpoint_write_buffer_job+0x3e>
    36ec:	4d0b      	ldr	r5, [pc, #44]	; (371c <usb_device_endpoint_write_buffer_job+0x44>)
    36ee:	0149      	lsls	r1, r1, #5
    36f0:	1869      	adds	r1, r5, r1
    36f2:	1c0d      	adds	r5, r1, #0
    36f4:	610a      	str	r2, [r1, #16]
    36f6:	6949      	ldr	r1, [r1, #20]
    36f8:	4a09      	ldr	r2, [pc, #36]	; (3720 <usb_device_endpoint_write_buffer_job+0x48>)
    36fa:	049b      	lsls	r3, r3, #18
    36fc:	400a      	ands	r2, r1
    36fe:	616a      	str	r2, [r5, #20]
    3700:	0c9a      	lsrs	r2, r3, #18
    3702:	696b      	ldr	r3, [r5, #20]
    3704:	2600      	movs	r6, #0
    3706:	0b9b      	lsrs	r3, r3, #14
    3708:	039b      	lsls	r3, r3, #14
    370a:	4313      	orrs	r3, r2
    370c:	616b      	str	r3, [r5, #20]
    370e:	6803      	ldr	r3, [r0, #0]
    3710:	191c      	adds	r4, r3, r4
    3712:	2380      	movs	r3, #128	; 0x80
    3714:	7163      	strb	r3, [r4, #5]
    3716:	1c30      	adds	r0, r6, #0
    3718:	bd70      	pop	{r4, r5, r6, pc}
    371a:	46c0      	nop			; (mov r8, r8)
    371c:	20000a20 	.word	0x20000a20
    3720:	f0003fff 	.word	0xf0003fff

00003724 <usb_device_endpoint_read_buffer_job>:
    3724:	b570      	push	{r4, r5, r6, lr}
    3726:	1c0c      	adds	r4, r1, #0
    3728:	6805      	ldr	r5, [r0, #0]
    372a:	3408      	adds	r4, #8
    372c:	0164      	lsls	r4, r4, #5
    372e:	5d66      	ldrb	r6, [r4, r5]
    3730:	251c      	movs	r5, #28
    3732:	0776      	lsls	r6, r6, #29
    3734:	d013      	beq.n	375e <usb_device_endpoint_read_buffer_job+0x3a>
    3736:	4d0b      	ldr	r5, [pc, #44]	; (3764 <usb_device_endpoint_read_buffer_job+0x40>)
    3738:	0149      	lsls	r1, r1, #5
    373a:	514a      	str	r2, [r1, r5]
    373c:	049b      	lsls	r3, r3, #18
    373e:	1869      	adds	r1, r5, r1
    3740:	684d      	ldr	r5, [r1, #4]
    3742:	091a      	lsrs	r2, r3, #4
    3744:	4b08      	ldr	r3, [pc, #32]	; (3768 <usb_device_endpoint_read_buffer_job+0x44>)
    3746:	402b      	ands	r3, r5
    3748:	4313      	orrs	r3, r2
    374a:	604b      	str	r3, [r1, #4]
    374c:	684b      	ldr	r3, [r1, #4]
    374e:	2500      	movs	r5, #0
    3750:	0b9b      	lsrs	r3, r3, #14
    3752:	039b      	lsls	r3, r3, #14
    3754:	604b      	str	r3, [r1, #4]
    3756:	6803      	ldr	r3, [r0, #0]
    3758:	191c      	adds	r4, r3, r4
    375a:	2340      	movs	r3, #64	; 0x40
    375c:	7123      	strb	r3, [r4, #4]
    375e:	1c28      	adds	r0, r5, #0
    3760:	bd70      	pop	{r4, r5, r6, pc}
    3762:	46c0      	nop			; (mov r8, r8)
    3764:	20000a20 	.word	0x20000a20
    3768:	f0003fff 	.word	0xf0003fff

0000376c <usb_device_endpoint_setup_buffer_job>:
    376c:	4b09      	ldr	r3, [pc, #36]	; (3794 <usb_device_endpoint_setup_buffer_job+0x28>)
    376e:	4a0a      	ldr	r2, [pc, #40]	; (3798 <usb_device_endpoint_setup_buffer_job+0x2c>)
    3770:	6019      	str	r1, [r3, #0]
    3772:	6859      	ldr	r1, [r3, #4]
    3774:	400a      	ands	r2, r1
    3776:	2180      	movs	r1, #128	; 0x80
    3778:	0289      	lsls	r1, r1, #10
    377a:	430a      	orrs	r2, r1
    377c:	605a      	str	r2, [r3, #4]
    377e:	685a      	ldr	r2, [r3, #4]
    3780:	0b92      	lsrs	r2, r2, #14
    3782:	0392      	lsls	r2, r2, #14
    3784:	605a      	str	r2, [r3, #4]
    3786:	2240      	movs	r2, #64	; 0x40
    3788:	6803      	ldr	r3, [r0, #0]
    378a:	2000      	movs	r0, #0
    378c:	33ff      	adds	r3, #255	; 0xff
    378e:	715a      	strb	r2, [r3, #5]
    3790:	4770      	bx	lr
    3792:	46c0      	nop			; (mov r8, r8)
    3794:	20000a20 	.word	0x20000a20
    3798:	f0003fff 	.word	0xf0003fff

0000379c <usb_enable>:
    379c:	2102      	movs	r1, #2
    379e:	6802      	ldr	r2, [r0, #0]
    37a0:	7813      	ldrb	r3, [r2, #0]
    37a2:	430b      	orrs	r3, r1
    37a4:	7013      	strb	r3, [r2, #0]
    37a6:	6802      	ldr	r2, [r0, #0]
    37a8:	7893      	ldrb	r3, [r2, #2]
    37aa:	2b02      	cmp	r3, #2
    37ac:	d0fc      	beq.n	37a8 <usb_enable+0xc>
    37ae:	4770      	bx	lr

000037b0 <USB_Handler>:
    37b0:	b5f0      	push	{r4, r5, r6, r7, lr}
    37b2:	4ed4      	ldr	r6, [pc, #848]	; (3b04 <USB_Handler+0x354>)
    37b4:	b085      	sub	sp, #20
    37b6:	6835      	ldr	r5, [r6, #0]
    37b8:	682c      	ldr	r4, [r5, #0]
    37ba:	7823      	ldrb	r3, [r4, #0]
    37bc:	09db      	lsrs	r3, r3, #7
    37be:	d100      	bne.n	37c2 <USB_Handler+0x12>
    37c0:	e0c8      	b.n	3954 <USB_Handler+0x1a4>
    37c2:	8c20      	ldrh	r0, [r4, #32]
    37c4:	4bd0      	ldr	r3, [pc, #832]	; (3b08 <USB_Handler+0x358>)
    37c6:	b280      	uxth	r0, r0
    37c8:	4798      	blx	r3
    37ca:	1c01      	adds	r1, r0, #0
    37cc:	2303      	movs	r3, #3
    37ce:	3108      	adds	r1, #8
    37d0:	0149      	lsls	r1, r1, #5
    37d2:	1864      	adds	r4, r4, r1
    37d4:	79e4      	ldrb	r4, [r4, #7]
    37d6:	1c07      	adds	r7, r0, #0
    37d8:	b2e4      	uxtb	r4, r4
    37da:	421c      	tst	r4, r3
    37dc:	d048      	beq.n	3870 <USB_Handler+0xc0>
    37de:	4acb      	ldr	r2, [pc, #812]	; (3b0c <USB_Handler+0x35c>)
    37e0:	4694      	mov	ip, r2
    37e2:	2201      	movs	r2, #1
    37e4:	4082      	lsls	r2, r0
    37e6:	4660      	mov	r0, ip
    37e8:	6800      	ldr	r0, [r0, #0]
    37ea:	4390      	bics	r0, r2
    37ec:	1c02      	adds	r2, r0, #0
    37ee:	4660      	mov	r0, ip
    37f0:	6002      	str	r2, [r0, #0]
    37f2:	2001      	movs	r0, #1
    37f4:	682a      	ldr	r2, [r5, #0]
    37f6:	1852      	adds	r2, r2, r1
    37f8:	71d3      	strb	r3, [r2, #7]
    37fa:	19ea      	adds	r2, r5, r7
    37fc:	32a8      	adds	r2, #168	; 0xa8
    37fe:	7992      	ldrb	r2, [r2, #6]
    3800:	4202      	tst	r2, r0
    3802:	d035      	beq.n	3870 <USB_Handler+0xc0>
    3804:	4ac2      	ldr	r2, [pc, #776]	; (3b10 <USB_Handler+0x360>)
    3806:	7017      	strb	r7, [r2, #0]
    3808:	6828      	ldr	r0, [r5, #0]
    380a:	5c09      	ldrb	r1, [r1, r0]
    380c:	48c1      	ldr	r0, [pc, #772]	; (3b14 <USB_Handler+0x364>)
    380e:	4019      	ands	r1, r3
    3810:	017b      	lsls	r3, r7, #5
    3812:	18c3      	adds	r3, r0, r3
    3814:	2901      	cmp	r1, #1
    3816:	d10c      	bne.n	3832 <USB_Handler+0x82>
    3818:	6859      	ldr	r1, [r3, #4]
    381a:	0489      	lsls	r1, r1, #18
    381c:	0c89      	lsrs	r1, r1, #18
    381e:	8051      	strh	r1, [r2, #2]
    3820:	6859      	ldr	r1, [r3, #4]
    3822:	0109      	lsls	r1, r1, #4
    3824:	0c89      	lsrs	r1, r1, #18
    3826:	8091      	strh	r1, [r2, #4]
    3828:	685a      	ldr	r2, [r3, #4]
    382a:	0b92      	lsrs	r2, r2, #14
    382c:	0392      	lsls	r2, r2, #14
    382e:	605a      	str	r2, [r3, #4]
    3830:	e017      	b.n	3862 <USB_Handler+0xb2>
    3832:	6859      	ldr	r1, [r3, #4]
    3834:	0109      	lsls	r1, r1, #4
    3836:	0c89      	lsrs	r1, r1, #18
    3838:	9101      	str	r1, [sp, #4]
    383a:	4669      	mov	r1, sp
    383c:	8889      	ldrh	r1, [r1, #4]
    383e:	8051      	strh	r1, [r2, #2]
    3840:	6858      	ldr	r0, [r3, #4]
    3842:	0480      	lsls	r0, r0, #18
    3844:	0c80      	lsrs	r0, r0, #18
    3846:	8090      	strh	r0, [r2, #4]
    3848:	6858      	ldr	r0, [r3, #4]
    384a:	4684      	mov	ip, r0
    384c:	4661      	mov	r1, ip
    384e:	48b2      	ldr	r0, [pc, #712]	; (3b18 <USB_Handler+0x368>)
    3850:	4008      	ands	r0, r1
    3852:	6058      	str	r0, [r3, #4]
    3854:	9901      	ldr	r1, [sp, #4]
    3856:	2900      	cmp	r1, #0
    3858:	d103      	bne.n	3862 <USB_Handler+0xb2>
    385a:	685b      	ldr	r3, [r3, #4]
    385c:	049b      	lsls	r3, r3, #18
    385e:	0c9b      	lsrs	r3, r3, #18
    3860:	8053      	strh	r3, [r2, #2]
    3862:	1cbb      	adds	r3, r7, #2
    3864:	011b      	lsls	r3, r3, #4
    3866:	18eb      	adds	r3, r5, r3
    3868:	685b      	ldr	r3, [r3, #4]
    386a:	1c28      	adds	r0, r5, #0
    386c:	49a8      	ldr	r1, [pc, #672]	; (3b10 <USB_Handler+0x360>)
    386e:	4798      	blx	r3
    3870:	2204      	movs	r2, #4
    3872:	4214      	tst	r4, r2
    3874:	d00d      	beq.n	3892 <USB_Handler+0xe2>
    3876:	2301      	movs	r3, #1
    3878:	40bb      	lsls	r3, r7
    387a:	49a4      	ldr	r1, [pc, #656]	; (3b0c <USB_Handler+0x35c>)
    387c:	6808      	ldr	r0, [r1, #0]
    387e:	4398      	bics	r0, r3
    3880:	4ba0      	ldr	r3, [pc, #640]	; (3b04 <USB_Handler+0x354>)
    3882:	6008      	str	r0, [r1, #0]
    3884:	681b      	ldr	r3, [r3, #0]
    3886:	6819      	ldr	r1, [r3, #0]
    3888:	1c3b      	adds	r3, r7, #0
    388a:	3308      	adds	r3, #8
    388c:	015b      	lsls	r3, r3, #5
    388e:	18cb      	adds	r3, r1, r3
    3890:	71da      	strb	r2, [r3, #7]
    3892:	2208      	movs	r2, #8
    3894:	4214      	tst	r4, r2
    3896:	d01d      	beq.n	38d4 <USB_Handler+0x124>
    3898:	2301      	movs	r3, #1
    389a:	40bb      	lsls	r3, r7
    389c:	499b      	ldr	r1, [pc, #620]	; (3b0c <USB_Handler+0x35c>)
    389e:	6808      	ldr	r0, [r1, #0]
    38a0:	4398      	bics	r0, r3
    38a2:	6008      	str	r0, [r1, #0]
    38a4:	6830      	ldr	r0, [r6, #0]
    38a6:	18bb      	adds	r3, r7, r2
    38a8:	6801      	ldr	r1, [r0, #0]
    38aa:	015b      	lsls	r3, r3, #5
    38ac:	18cb      	adds	r3, r1, r3
    38ae:	71da      	strb	r2, [r3, #7]
    38b0:	19c3      	adds	r3, r0, r7
    38b2:	33a8      	adds	r3, #168	; 0xa8
    38b4:	799b      	ldrb	r3, [r3, #6]
    38b6:	079b      	lsls	r3, r3, #30
    38b8:	d50c      	bpl.n	38d4 <USB_Handler+0x124>
    38ba:	4995      	ldr	r1, [pc, #596]	; (3b10 <USB_Handler+0x360>)
    38bc:	4a95      	ldr	r2, [pc, #596]	; (3b14 <USB_Handler+0x364>)
    38be:	017b      	lsls	r3, r7, #5
    38c0:	18d3      	adds	r3, r2, r3
    38c2:	700f      	strb	r7, [r1, #0]
    38c4:	89da      	ldrh	r2, [r3, #14]
    38c6:	231f      	movs	r3, #31
    38c8:	4013      	ands	r3, r2
    38ca:	704b      	strb	r3, [r1, #1]
    38cc:	013b      	lsls	r3, r7, #4
    38ce:	18c3      	adds	r3, r0, r3
    38d0:	6a9b      	ldr	r3, [r3, #40]	; 0x28
    38d2:	4798      	blx	r3
    38d4:	2210      	movs	r2, #16
    38d6:	4214      	tst	r4, r2
    38d8:	d01f      	beq.n	391a <USB_Handler+0x16a>
    38da:	2301      	movs	r3, #1
    38dc:	40bb      	lsls	r3, r7
    38de:	498b      	ldr	r1, [pc, #556]	; (3b0c <USB_Handler+0x35c>)
    38e0:	6808      	ldr	r0, [r1, #0]
    38e2:	4398      	bics	r0, r3
    38e4:	1c3b      	adds	r3, r7, #0
    38e6:	6008      	str	r0, [r1, #0]
    38e8:	6830      	ldr	r0, [r6, #0]
    38ea:	3308      	adds	r3, #8
    38ec:	6801      	ldr	r1, [r0, #0]
    38ee:	015b      	lsls	r3, r3, #5
    38f0:	18cb      	adds	r3, r1, r3
    38f2:	71da      	strb	r2, [r3, #7]
    38f4:	19c3      	adds	r3, r0, r7
    38f6:	33a8      	adds	r3, #168	; 0xa8
    38f8:	799b      	ldrb	r3, [r3, #6]
    38fa:	075b      	lsls	r3, r3, #29
    38fc:	d50d      	bpl.n	391a <USB_Handler+0x16a>
    38fe:	4a84      	ldr	r2, [pc, #528]	; (3b10 <USB_Handler+0x360>)
    3900:	4984      	ldr	r1, [pc, #528]	; (3b14 <USB_Handler+0x364>)
    3902:	017b      	lsls	r3, r7, #5
    3904:	18cb      	adds	r3, r1, r3
    3906:	7017      	strb	r7, [r2, #0]
    3908:	685b      	ldr	r3, [r3, #4]
    390a:	2100      	movs	r1, #0
    390c:	011b      	lsls	r3, r3, #4
    390e:	0c9b      	lsrs	r3, r3, #18
    3910:	8053      	strh	r3, [r2, #2]
    3912:	013b      	lsls	r3, r7, #4
    3914:	18c3      	adds	r3, r0, r3
    3916:	6adb      	ldr	r3, [r3, #44]	; 0x2c
    3918:	4798      	blx	r3
    391a:	2220      	movs	r2, #32
    391c:	4214      	tst	r4, r2
    391e:	d100      	bne.n	3922 <USB_Handler+0x172>
    3920:	e120      	b.n	3b64 <USB_Handler+0x3b4>
    3922:	2301      	movs	r3, #1
    3924:	40bb      	lsls	r3, r7
    3926:	4979      	ldr	r1, [pc, #484]	; (3b0c <USB_Handler+0x35c>)
    3928:	6808      	ldr	r0, [r1, #0]
    392a:	4398      	bics	r0, r3
    392c:	1c3b      	adds	r3, r7, #0
    392e:	6008      	str	r0, [r1, #0]
    3930:	6830      	ldr	r0, [r6, #0]
    3932:	3308      	adds	r3, #8
    3934:	6801      	ldr	r1, [r0, #0]
    3936:	015b      	lsls	r3, r3, #5
    3938:	18cb      	adds	r3, r1, r3
    393a:	71da      	strb	r2, [r3, #7]
    393c:	19c3      	adds	r3, r0, r7
    393e:	33a8      	adds	r3, #168	; 0xa8
    3940:	799b      	ldrb	r3, [r3, #6]
    3942:	071b      	lsls	r3, r3, #28
    3944:	d400      	bmi.n	3948 <USB_Handler+0x198>
    3946:	e10d      	b.n	3b64 <USB_Handler+0x3b4>
    3948:	4971      	ldr	r1, [pc, #452]	; (3b10 <USB_Handler+0x360>)
    394a:	700f      	strb	r7, [r1, #0]
    394c:	013f      	lsls	r7, r7, #4
    394e:	19c7      	adds	r7, r0, r7
    3950:	6b3b      	ldr	r3, [r7, #48]	; 0x30
    3952:	e063      	b.n	3a1c <USB_Handler+0x26c>
    3954:	8c22      	ldrh	r2, [r4, #32]
    3956:	b292      	uxth	r2, r2
    3958:	9201      	str	r2, [sp, #4]
    395a:	2a00      	cmp	r2, #0
    395c:	d129      	bne.n	39b2 <USB_Handler+0x202>
    395e:	23ab      	movs	r3, #171	; 0xab
    3960:	8ba4      	ldrh	r4, [r4, #28]
    3962:	005b      	lsls	r3, r3, #1
    3964:	3255      	adds	r2, #85	; 0x55
    3966:	5aeb      	ldrh	r3, [r5, r3]
    3968:	32ff      	adds	r2, #255	; 0xff
    396a:	b2a4      	uxth	r4, r4
    396c:	5aad      	ldrh	r5, [r5, r2]
    396e:	4023      	ands	r3, r4
    3970:	9f01      	ldr	r7, [sp, #4]
    3972:	401d      	ands	r5, r3
    3974:	4b69      	ldr	r3, [pc, #420]	; (3b1c <USB_Handler+0x36c>)
    3976:	007a      	lsls	r2, r7, #1
    3978:	5ad3      	ldrh	r3, [r2, r3]
    397a:	421c      	tst	r4, r3
    397c:	d002      	beq.n	3984 <USB_Handler+0x1d4>
    397e:	6832      	ldr	r2, [r6, #0]
    3980:	6812      	ldr	r2, [r2, #0]
    3982:	8393      	strh	r3, [r2, #28]
    3984:	421d      	tst	r5, r3
    3986:	d010      	beq.n	39aa <USB_Handler+0x1fa>
    3988:	4965      	ldr	r1, [pc, #404]	; (3b20 <USB_Handler+0x370>)
    398a:	2f06      	cmp	r7, #6
    398c:	d106      	bne.n	399c <USB_Handler+0x1ec>
    398e:	2280      	movs	r2, #128	; 0x80
    3990:	4b60      	ldr	r3, [pc, #384]	; (3b14 <USB_Handler+0x364>)
    3992:	0052      	lsls	r2, r2, #1
    3994:	891b      	ldrh	r3, [r3, #8]
    3996:	091b      	lsrs	r3, r3, #4
    3998:	4013      	ands	r3, r2
    399a:	600b      	str	r3, [r1, #0]
    399c:	1c3b      	adds	r3, r7, #0
    399e:	6832      	ldr	r2, [r6, #0]
    39a0:	332e      	adds	r3, #46	; 0x2e
    39a2:	009b      	lsls	r3, r3, #2
    39a4:	589b      	ldr	r3, [r3, r2]
    39a6:	1c10      	adds	r0, r2, #0
    39a8:	4798      	blx	r3
    39aa:	3701      	adds	r7, #1
    39ac:	2f07      	cmp	r7, #7
    39ae:	d1e1      	bne.n	3974 <USB_Handler+0x1c4>
    39b0:	e0d8      	b.n	3b64 <USB_Handler+0x3b4>
    39b2:	1c2e      	adds	r6, r5, #0
    39b4:	3659      	adds	r6, #89	; 0x59
    39b6:	36ff      	adds	r6, #255	; 0xff
    39b8:	9a01      	ldr	r2, [sp, #4]
    39ba:	2101      	movs	r1, #1
    39bc:	411a      	asrs	r2, r3
    39be:	b2d8      	uxtb	r0, r3
    39c0:	420a      	tst	r2, r1
    39c2:	d100      	bne.n	39c6 <USB_Handler+0x216>
    39c4:	e0c9      	b.n	3b5a <USB_Handler+0x3aa>
    39c6:	1c1a      	adds	r2, r3, #0
    39c8:	3208      	adds	r2, #8
    39ca:	9202      	str	r2, [sp, #8]
    39cc:	0152      	lsls	r2, r2, #5
    39ce:	18a2      	adds	r2, r4, r2
    39d0:	9203      	str	r2, [sp, #12]
    39d2:	79d1      	ldrb	r1, [r2, #7]
    39d4:	7837      	ldrb	r7, [r6, #0]
    39d6:	7a32      	ldrb	r2, [r6, #8]
    39d8:	b2c9      	uxtb	r1, r1
    39da:	403a      	ands	r2, r7
    39dc:	2760      	movs	r7, #96	; 0x60
    39de:	400a      	ands	r2, r1
    39e0:	4239      	tst	r1, r7
    39e2:	d01d      	beq.n	3a20 <USB_Handler+0x270>
    39e4:	0159      	lsls	r1, r3, #5
    39e6:	1864      	adds	r4, r4, r1
    39e8:	2140      	movs	r1, #64	; 0x40
    39ea:	34ff      	adds	r4, #255	; 0xff
    39ec:	7a26      	ldrb	r6, [r4, #8]
    39ee:	420e      	tst	r6, r1
    39f0:	d003      	beq.n	39fa <USB_Handler+0x24a>
    39f2:	7221      	strb	r1, [r4, #8]
    39f4:	39c0      	subs	r1, #192	; 0xc0
    39f6:	4308      	orrs	r0, r1
    39f8:	e004      	b.n	3a04 <USB_Handler+0x254>
    39fa:	2120      	movs	r1, #32
    39fc:	7a26      	ldrb	r6, [r4, #8]
    39fe:	420e      	tst	r6, r1
    3a00:	d002      	beq.n	3a08 <USB_Handler+0x258>
    3a02:	7221      	strb	r1, [r4, #8]
    3a04:	4947      	ldr	r1, [pc, #284]	; (3b24 <USB_Handler+0x374>)
    3a06:	7188      	strb	r0, [r1, #6]
    3a08:	2160      	movs	r1, #96	; 0x60
    3a0a:	420a      	tst	r2, r1
    3a0c:	d100      	bne.n	3a10 <USB_Handler+0x260>
    3a0e:	e0a9      	b.n	3b64 <USB_Handler+0x3b4>
    3a10:	011b      	lsls	r3, r3, #4
    3a12:	18eb      	adds	r3, r5, r3
    3a14:	33dc      	adds	r3, #220	; 0xdc
    3a16:	1c28      	adds	r0, r5, #0
    3a18:	685b      	ldr	r3, [r3, #4]
    3a1a:	4942      	ldr	r1, [pc, #264]	; (3b24 <USB_Handler+0x374>)
    3a1c:	4798      	blx	r3
    3a1e:	e0a1      	b.n	3b64 <USB_Handler+0x3b4>
    3a20:	2710      	movs	r7, #16
    3a22:	4239      	tst	r1, r7
    3a24:	d016      	beq.n	3a54 <USB_Handler+0x2a4>
    3a26:	9a03      	ldr	r2, [sp, #12]
    3a28:	71d7      	strb	r7, [r2, #7]
    3a2a:	18ea      	adds	r2, r5, r3
    3a2c:	3261      	adds	r2, #97	; 0x61
    3a2e:	32ff      	adds	r2, #255	; 0xff
    3a30:	7812      	ldrb	r2, [r2, #0]
    3a32:	423a      	tst	r2, r7
    3a34:	d100      	bne.n	3a38 <USB_Handler+0x288>
    3a36:	e095      	b.n	3b64 <USB_Handler+0x3b4>
    3a38:	4936      	ldr	r1, [pc, #216]	; (3b14 <USB_Handler+0x364>)
    3a3a:	015a      	lsls	r2, r3, #5
    3a3c:	188a      	adds	r2, r1, r2
    3a3e:	6852      	ldr	r2, [r2, #4]
    3a40:	011b      	lsls	r3, r3, #4
    3a42:	0492      	lsls	r2, r2, #18
    3a44:	4937      	ldr	r1, [pc, #220]	; (3b24 <USB_Handler+0x374>)
    3a46:	18eb      	adds	r3, r5, r3
    3a48:	0c92      	lsrs	r2, r2, #18
    3a4a:	33d8      	adds	r3, #216	; 0xd8
    3a4c:	800a      	strh	r2, [r1, #0]
    3a4e:	685b      	ldr	r3, [r3, #4]
    3a50:	1c28      	adds	r0, r5, #0
    3a52:	e7e3      	b.n	3a1c <USB_Handler+0x26c>
    3a54:	078f      	lsls	r7, r1, #30
    3a56:	d02c      	beq.n	3ab2 <USB_Handler+0x302>
    3a58:	015e      	lsls	r6, r3, #5
    3a5a:	19a4      	adds	r4, r4, r6
    3a5c:	34ff      	adds	r4, #255	; 0xff
    3a5e:	7a21      	ldrb	r1, [r4, #8]
    3a60:	468c      	mov	ip, r1
    3a62:	2102      	movs	r1, #2
    3a64:	4667      	mov	r7, ip
    3a66:	420f      	tst	r7, r1
    3a68:	d00c      	beq.n	3a84 <USB_Handler+0x2d4>
    3a6a:	7221      	strb	r1, [r4, #8]
    3a6c:	3982      	subs	r1, #130	; 0x82
    3a6e:	4308      	orrs	r0, r1
    3a70:	4928      	ldr	r1, [pc, #160]	; (3b14 <USB_Handler+0x364>)
    3a72:	4c2c      	ldr	r4, [pc, #176]	; (3b24 <USB_Handler+0x374>)
    3a74:	1989      	adds	r1, r1, r6
    3a76:	71a0      	strb	r0, [r4, #6]
    3a78:	3110      	adds	r1, #16
    3a7a:	6849      	ldr	r1, [r1, #4]
    3a7c:	0489      	lsls	r1, r1, #18
    3a7e:	0c89      	lsrs	r1, r1, #18
    3a80:	8061      	strh	r1, [r4, #2]
    3a82:	e010      	b.n	3aa6 <USB_Handler+0x2f6>
    3a84:	2701      	movs	r7, #1
    3a86:	7a21      	ldrb	r1, [r4, #8]
    3a88:	4239      	tst	r1, r7
    3a8a:	d00c      	beq.n	3aa6 <USB_Handler+0x2f6>
    3a8c:	7227      	strb	r7, [r4, #8]
    3a8e:	4921      	ldr	r1, [pc, #132]	; (3b14 <USB_Handler+0x364>)
    3a90:	4c24      	ldr	r4, [pc, #144]	; (3b24 <USB_Handler+0x374>)
    3a92:	1989      	adds	r1, r1, r6
    3a94:	71a0      	strb	r0, [r4, #6]
    3a96:	6848      	ldr	r0, [r1, #4]
    3a98:	0480      	lsls	r0, r0, #18
    3a9a:	0c80      	lsrs	r0, r0, #18
    3a9c:	8020      	strh	r0, [r4, #0]
    3a9e:	6849      	ldr	r1, [r1, #4]
    3aa0:	0109      	lsls	r1, r1, #4
    3aa2:	0c89      	lsrs	r1, r1, #18
    3aa4:	80a1      	strh	r1, [r4, #4]
    3aa6:	0792      	lsls	r2, r2, #30
    3aa8:	d05c      	beq.n	3b64 <USB_Handler+0x3b4>
    3aaa:	330d      	adds	r3, #13
    3aac:	011b      	lsls	r3, r3, #4
    3aae:	18eb      	adds	r3, r5, r3
    3ab0:	e7b1      	b.n	3a16 <USB_Handler+0x266>
    3ab2:	270c      	movs	r7, #12
    3ab4:	4239      	tst	r1, r7
    3ab6:	d050      	beq.n	3b5a <USB_Handler+0x3aa>
    3ab8:	2108      	movs	r1, #8
    3aba:	015e      	lsls	r6, r3, #5
    3abc:	19a4      	adds	r4, r4, r6
    3abe:	34ff      	adds	r4, #255	; 0xff
    3ac0:	7a27      	ldrb	r7, [r4, #8]
    3ac2:	420f      	tst	r7, r1
    3ac4:	d030      	beq.n	3b28 <USB_Handler+0x378>
    3ac6:	7221      	strb	r1, [r4, #8]
    3ac8:	2402      	movs	r4, #2
    3aca:	4912      	ldr	r1, [pc, #72]	; (3b14 <USB_Handler+0x364>)
    3acc:	198e      	adds	r6, r1, r6
    3ace:	7eb1      	ldrb	r1, [r6, #26]
    3ad0:	3618      	adds	r6, #24
    3ad2:	4221      	tst	r1, r4
    3ad4:	d002      	beq.n	3adc <USB_Handler+0x32c>
    3ad6:	78b1      	ldrb	r1, [r6, #2]
    3ad8:	43a1      	bics	r1, r4
    3ada:	70b1      	strb	r1, [r6, #2]
    3adc:	2180      	movs	r1, #128	; 0x80
    3ade:	4249      	negs	r1, r1
    3ae0:	4308      	orrs	r0, r1
    3ae2:	4910      	ldr	r1, [pc, #64]	; (3b24 <USB_Handler+0x374>)
    3ae4:	7188      	strb	r0, [r1, #6]
    3ae6:	9902      	ldr	r1, [sp, #8]
    3ae8:	6828      	ldr	r0, [r5, #0]
    3aea:	0149      	lsls	r1, r1, #5
    3aec:	1841      	adds	r1, r0, r1
    3aee:	79c9      	ldrb	r1, [r1, #7]
    3af0:	0789      	lsls	r1, r1, #30
    3af2:	d437      	bmi.n	3b64 <USB_Handler+0x3b4>
    3af4:	210c      	movs	r1, #12
    3af6:	420a      	tst	r2, r1
    3af8:	d034      	beq.n	3b64 <USB_Handler+0x3b4>
    3afa:	011b      	lsls	r3, r3, #4
    3afc:	18eb      	adds	r3, r5, r3
    3afe:	33d4      	adds	r3, #212	; 0xd4
    3b00:	e789      	b.n	3a16 <USB_Handler+0x266>
    3b02:	46c0      	nop			; (mov r8, r8)
    3b04:	20000720 	.word	0x20000720
    3b08:	0000458d 	.word	0x0000458d
    3b0c:	20000714 	.word	0x20000714
    3b10:	2000070c 	.word	0x2000070c
    3b14:	20000a20 	.word	0x20000a20
    3b18:	f0003fff 	.word	0xf0003fff
    3b1c:	00004702 	.word	0x00004702
    3b20:	20000708 	.word	0x20000708
    3b24:	20000718 	.word	0x20000718
    3b28:	2104      	movs	r1, #4
    3b2a:	7a27      	ldrb	r7, [r4, #8]
    3b2c:	420f      	tst	r7, r1
    3b2e:	d0e1      	beq.n	3af4 <USB_Handler+0x344>
    3b30:	7221      	strb	r1, [r4, #8]
    3b32:	490d      	ldr	r1, [pc, #52]	; (3b68 <USB_Handler+0x3b8>)
    3b34:	1989      	adds	r1, r1, r6
    3b36:	2602      	movs	r6, #2
    3b38:	7a8c      	ldrb	r4, [r1, #10]
    3b3a:	3108      	adds	r1, #8
    3b3c:	4234      	tst	r4, r6
    3b3e:	d002      	beq.n	3b46 <USB_Handler+0x396>
    3b40:	788c      	ldrb	r4, [r1, #2]
    3b42:	43b4      	bics	r4, r6
    3b44:	708c      	strb	r4, [r1, #2]
    3b46:	4909      	ldr	r1, [pc, #36]	; (3b6c <USB_Handler+0x3bc>)
    3b48:	7188      	strb	r0, [r1, #6]
    3b4a:	9902      	ldr	r1, [sp, #8]
    3b4c:	6828      	ldr	r0, [r5, #0]
    3b4e:	0149      	lsls	r1, r1, #5
    3b50:	1841      	adds	r1, r0, r1
    3b52:	79c9      	ldrb	r1, [r1, #7]
    3b54:	07c9      	lsls	r1, r1, #31
    3b56:	d5cd      	bpl.n	3af4 <USB_Handler+0x344>
    3b58:	e004      	b.n	3b64 <USB_Handler+0x3b4>
    3b5a:	3301      	adds	r3, #1
    3b5c:	3601      	adds	r6, #1
    3b5e:	2b08      	cmp	r3, #8
    3b60:	d000      	beq.n	3b64 <USB_Handler+0x3b4>
    3b62:	e729      	b.n	39b8 <USB_Handler+0x208>
    3b64:	b005      	add	sp, #20
    3b66:	bdf0      	pop	{r4, r5, r6, r7, pc}
    3b68:	20000a20 	.word	0x20000a20
    3b6c:	20000718 	.word	0x20000718

00003b70 <usb_get_config_defaults>:
    3b70:	2200      	movs	r2, #0
    3b72:	2301      	movs	r3, #1
    3b74:	7002      	strb	r2, [r0, #0]
    3b76:	7043      	strb	r3, [r0, #1]
    3b78:	7082      	strb	r2, [r0, #2]
    3b7a:	70c3      	strb	r3, [r0, #3]
    3b7c:	4770      	bx	lr
	...

00003b80 <usb_init>:
    3b80:	2300      	movs	r3, #0
    3b82:	b5f7      	push	{r0, r1, r2, r4, r5, r6, r7, lr}
    3b84:	1c04      	adds	r4, r0, #0
    3b86:	1c17      	adds	r7, r2, #0
    3b88:	4a67      	ldr	r2, [pc, #412]	; (3d28 <usb_init+0x1a8>)
    3b8a:	1c0d      	adds	r5, r1, #0
    3b8c:	6013      	str	r3, [r2, #0]
    3b8e:	4a67      	ldr	r2, [pc, #412]	; (3d2c <usb_init+0x1ac>)
    3b90:	6021      	str	r1, [r4, #0]
    3b92:	6010      	str	r0, [r2, #0]
    3b94:	2020      	movs	r0, #32
    3b96:	4966      	ldr	r1, [pc, #408]	; (3d30 <usb_init+0x1b0>)
    3b98:	ae01      	add	r6, sp, #4
    3b9a:	69ca      	ldr	r2, [r1, #28]
    3b9c:	4302      	orrs	r2, r0
    3b9e:	61ca      	str	r2, [r1, #28]
    3ba0:	2201      	movs	r2, #1
    3ba2:	7073      	strb	r3, [r6, #1]
    3ba4:	70f3      	strb	r3, [r6, #3]
    3ba6:	3306      	adds	r3, #6
    3ba8:	7033      	strb	r3, [r6, #0]
    3baa:	3808      	subs	r0, #8
    3bac:	1c31      	adds	r1, r6, #0
    3bae:	4b61      	ldr	r3, [pc, #388]	; (3d34 <usb_init+0x1b4>)
    3bb0:	70b2      	strb	r2, [r6, #2]
    3bb2:	4798      	blx	r3
    3bb4:	2306      	movs	r3, #6
    3bb6:	2019      	movs	r0, #25
    3bb8:	7033      	strb	r3, [r6, #0]
    3bba:	1c31      	adds	r1, r6, #0
    3bbc:	4b5d      	ldr	r3, [pc, #372]	; (3d34 <usb_init+0x1b4>)
    3bbe:	4798      	blx	r3
    3bc0:	466a      	mov	r2, sp
    3bc2:	78bb      	ldrb	r3, [r7, #2]
    3bc4:	2006      	movs	r0, #6
    3bc6:	7013      	strb	r3, [r2, #0]
    3bc8:	4669      	mov	r1, sp
    3bca:	4b5b      	ldr	r3, [pc, #364]	; (3d38 <usb_init+0x1b8>)
    3bcc:	4798      	blx	r3
    3bce:	4b5b      	ldr	r3, [pc, #364]	; (3d3c <usb_init+0x1bc>)
    3bd0:	2006      	movs	r0, #6
    3bd2:	4798      	blx	r3
    3bd4:	2201      	movs	r2, #1
    3bd6:	782b      	ldrb	r3, [r5, #0]
    3bd8:	4313      	orrs	r3, r2
    3bda:	702b      	strb	r3, [r5, #0]
    3bdc:	78ab      	ldrb	r3, [r5, #2]
    3bde:	07db      	lsls	r3, r3, #31
    3be0:	d4fc      	bmi.n	3bdc <usb_init+0x5c>
    3be2:	2103      	movs	r1, #3
    3be4:	201f      	movs	r0, #31
    3be6:	4a56      	ldr	r2, [pc, #344]	; (3d40 <usb_init+0x1c0>)
    3be8:	78d3      	ldrb	r3, [r2, #3]
    3bea:	438b      	bics	r3, r1
    3bec:	3901      	subs	r1, #1
    3bee:	430b      	orrs	r3, r1
    3bf0:	70d3      	strb	r3, [r2, #3]
    3bf2:	78d3      	ldrb	r3, [r2, #3]
    3bf4:	310a      	adds	r1, #10
    3bf6:	438b      	bics	r3, r1
    3bf8:	3904      	subs	r1, #4
    3bfa:	430b      	orrs	r3, r1
    3bfc:	4951      	ldr	r1, [pc, #324]	; (3d44 <usb_init+0x1c4>)
    3bfe:	70d3      	strb	r3, [r2, #3]
    3c00:	680b      	ldr	r3, [r1, #0]
    3c02:	0b5b      	lsrs	r3, r3, #13
    3c04:	4003      	ands	r3, r0
    3c06:	4283      	cmp	r3, r0
    3c08:	d100      	bne.n	3c0c <usb_init+0x8c>
    3c0a:	2305      	movs	r3, #5
    3c0c:	4003      	ands	r3, r0
    3c0e:	019a      	lsls	r2, r3, #6
    3c10:	8d2e      	ldrh	r6, [r5, #40]	; 0x28
    3c12:	4b4d      	ldr	r3, [pc, #308]	; (3d48 <usb_init+0x1c8>)
    3c14:	4033      	ands	r3, r6
    3c16:	4313      	orrs	r3, r2
    3c18:	852b      	strh	r3, [r5, #40]	; 0x28
    3c1a:	680b      	ldr	r3, [r1, #0]
    3c1c:	0c9b      	lsrs	r3, r3, #18
    3c1e:	4003      	ands	r3, r0
    3c20:	2b1f      	cmp	r3, #31
    3c22:	d100      	bne.n	3c26 <usb_init+0xa6>
    3c24:	3b02      	subs	r3, #2
    3c26:	201f      	movs	r0, #31
    3c28:	8d2a      	ldrh	r2, [r5, #40]	; 0x28
    3c2a:	4003      	ands	r3, r0
    3c2c:	4382      	bics	r2, r0
    3c2e:	4313      	orrs	r3, r2
    3c30:	852b      	strh	r3, [r5, #40]	; 0x28
    3c32:	2307      	movs	r3, #7
    3c34:	680a      	ldr	r2, [r1, #0]
    3c36:	0dd2      	lsrs	r2, r2, #23
    3c38:	401a      	ands	r2, r3
    3c3a:	429a      	cmp	r2, r3
    3c3c:	d100      	bne.n	3c40 <usb_init+0xc0>
    3c3e:	2203      	movs	r2, #3
    3c40:	4013      	ands	r3, r2
    3c42:	8d29      	ldrh	r1, [r5, #40]	; 0x28
    3c44:	031a      	lsls	r2, r3, #12
    3c46:	4b41      	ldr	r3, [pc, #260]	; (3d4c <usb_init+0x1cc>)
    3c48:	4841      	ldr	r0, [pc, #260]	; (3d50 <usb_init+0x1d0>)
    3c4a:	400b      	ands	r3, r1
    3c4c:	4313      	orrs	r3, r2
    3c4e:	852b      	strh	r3, [r5, #40]	; 0x28
    3c50:	783b      	ldrb	r3, [r7, #0]
    3c52:	7829      	ldrb	r1, [r5, #0]
    3c54:	01da      	lsls	r2, r3, #7
    3c56:	237f      	movs	r3, #127	; 0x7f
    3c58:	400b      	ands	r3, r1
    3c5a:	4313      	orrs	r3, r2
    3c5c:	702b      	strb	r3, [r5, #0]
    3c5e:	2301      	movs	r3, #1
    3c60:	2104      	movs	r1, #4
    3c62:	787a      	ldrb	r2, [r7, #1]
    3c64:	4013      	ands	r3, r2
    3c66:	009a      	lsls	r2, r3, #2
    3c68:	782b      	ldrb	r3, [r5, #0]
    3c6a:	438b      	bics	r3, r1
    3c6c:	4313      	orrs	r3, r2
    3c6e:	702b      	strb	r3, [r5, #0]
    3c70:	6268      	str	r0, [r5, #36]	; 0x24
    3c72:	78fb      	ldrb	r3, [r7, #3]
    3c74:	2b01      	cmp	r3, #1
    3c76:	d104      	bne.n	3c82 <usb_init+0x102>
    3c78:	6822      	ldr	r2, [r4, #0]
    3c7a:	3108      	adds	r1, #8
    3c7c:	8913      	ldrh	r3, [r2, #8]
    3c7e:	438b      	bics	r3, r1
    3c80:	e006      	b.n	3c90 <usb_init+0x110>
    3c82:	2b00      	cmp	r3, #0
    3c84:	d105      	bne.n	3c92 <usb_init+0x112>
    3c86:	250c      	movs	r5, #12
    3c88:	6822      	ldr	r2, [r4, #0]
    3c8a:	8913      	ldrh	r3, [r2, #8]
    3c8c:	43ab      	bics	r3, r5
    3c8e:	430b      	orrs	r3, r1
    3c90:	8113      	strh	r3, [r2, #8]
    3c92:	2280      	movs	r2, #128	; 0x80
    3c94:	4b2f      	ldr	r3, [pc, #188]	; (3d54 <usb_init+0x1d4>)
    3c96:	0052      	lsls	r2, r2, #1
    3c98:	2100      	movs	r1, #0
    3c9a:	4798      	blx	r3
    3c9c:	1c23      	adds	r3, r4, #0
    3c9e:	1d22      	adds	r2, r4, #4
    3ca0:	3324      	adds	r3, #36	; 0x24
    3ca2:	2100      	movs	r1, #0
    3ca4:	c202      	stmia	r2!, {r1}
    3ca6:	429a      	cmp	r2, r3
    3ca8:	d1fb      	bne.n	3ca2 <usb_init+0x122>
    3caa:	1c21      	adds	r1, r4, #0
    3cac:	31a4      	adds	r1, #164	; 0xa4
    3cae:	2200      	movs	r2, #0
    3cb0:	601a      	str	r2, [r3, #0]
    3cb2:	605a      	str	r2, [r3, #4]
    3cb4:	609a      	str	r2, [r3, #8]
    3cb6:	60da      	str	r2, [r3, #12]
    3cb8:	3310      	adds	r3, #16
    3cba:	428b      	cmp	r3, r1
    3cbc:	d1f7      	bne.n	3cae <usb_init+0x12e>
    3cbe:	701a      	strb	r2, [r3, #0]
    3cc0:	1c23      	adds	r3, r4, #0
    3cc2:	1c21      	adds	r1, r4, #0
    3cc4:	33a5      	adds	r3, #165	; 0xa5
    3cc6:	701a      	strb	r2, [r3, #0]
    3cc8:	31ae      	adds	r1, #174	; 0xae
    3cca:	3301      	adds	r3, #1
    3ccc:	2200      	movs	r2, #0
    3cce:	701a      	strb	r2, [r3, #0]
    3cd0:	721a      	strb	r2, [r3, #8]
    3cd2:	3301      	adds	r3, #1
    3cd4:	428b      	cmp	r3, r1
    3cd6:	d1f9      	bne.n	3ccc <usb_init+0x14c>
    3cd8:	1c22      	adds	r2, r4, #0
    3cda:	1c23      	adds	r3, r4, #0
    3cdc:	32b8      	adds	r2, #184	; 0xb8
    3cde:	33d4      	adds	r3, #212	; 0xd4
    3ce0:	2100      	movs	r1, #0
    3ce2:	c202      	stmia	r2!, {r1}
    3ce4:	429a      	cmp	r2, r3
    3ce6:	d1fb      	bne.n	3ce0 <usb_init+0x160>
    3ce8:	1c21      	adds	r1, r4, #0
    3cea:	3155      	adds	r1, #85	; 0x55
    3cec:	31ff      	adds	r1, #255	; 0xff
    3cee:	2200      	movs	r2, #0
    3cf0:	601a      	str	r2, [r3, #0]
    3cf2:	605a      	str	r2, [r3, #4]
    3cf4:	609a      	str	r2, [r3, #8]
    3cf6:	60da      	str	r2, [r3, #12]
    3cf8:	3310      	adds	r3, #16
    3cfa:	428b      	cmp	r3, r1
    3cfc:	d1f7      	bne.n	3cee <usb_init+0x16e>
    3cfe:	23aa      	movs	r3, #170	; 0xaa
    3d00:	005b      	lsls	r3, r3, #1
    3d02:	52e2      	strh	r2, [r4, r3]
    3d04:	3302      	adds	r3, #2
    3d06:	52e2      	strh	r2, [r4, r3]
    3d08:	1c23      	adds	r3, r4, #0
    3d0a:	3461      	adds	r4, #97	; 0x61
    3d0c:	3359      	adds	r3, #89	; 0x59
    3d0e:	33ff      	adds	r3, #255	; 0xff
    3d10:	34ff      	adds	r4, #255	; 0xff
    3d12:	2000      	movs	r0, #0
    3d14:	7018      	strb	r0, [r3, #0]
    3d16:	7218      	strb	r0, [r3, #8]
    3d18:	3301      	adds	r3, #1
    3d1a:	42a3      	cmp	r3, r4
    3d1c:	d1f9      	bne.n	3d12 <usb_init+0x192>
    3d1e:	2280      	movs	r2, #128	; 0x80
    3d20:	4b0d      	ldr	r3, [pc, #52]	; (3d58 <usb_init+0x1d8>)
    3d22:	601a      	str	r2, [r3, #0]
    3d24:	bdfe      	pop	{r1, r2, r3, r4, r5, r6, r7, pc}
    3d26:	46c0      	nop			; (mov r8, r8)
    3d28:	20000714 	.word	0x20000714
    3d2c:	20000720 	.word	0x20000720
    3d30:	40000400 	.word	0x40000400
    3d34:	000025d5 	.word	0x000025d5
    3d38:	00002501 	.word	0x00002501
    3d3c:	0000247d 	.word	0x0000247d
    3d40:	41005000 	.word	0x41005000
    3d44:	00806024 	.word	0x00806024
    3d48:	fffff83f 	.word	0xfffff83f
    3d4c:	ffff8fff 	.word	0xffff8fff
    3d50:	20000a20 	.word	0x20000a20
    3d54:	0000467f 	.word	0x0000467f
    3d58:	e000e100 	.word	0xe000e100

00003d5c <Dummy_Handler>:
    3d5c:	e7fe      	b.n	3d5c <Dummy_Handler>
	...

00003d60 <Reset_Handler>:
    3d60:	4821      	ldr	r0, [pc, #132]	; (3de8 <Reset_Handler+0x88>)
    3d62:	4922      	ldr	r1, [pc, #136]	; (3dec <Reset_Handler+0x8c>)
    3d64:	b570      	push	{r4, r5, r6, lr}
    3d66:	2300      	movs	r3, #0
    3d68:	4288      	cmp	r0, r1
    3d6a:	d101      	bne.n	3d70 <Reset_Handler+0x10>
    3d6c:	4b20      	ldr	r3, [pc, #128]	; (3df0 <Reset_Handler+0x90>)
    3d6e:	e007      	b.n	3d80 <Reset_Handler+0x20>
    3d70:	4c20      	ldr	r4, [pc, #128]	; (3df4 <Reset_Handler+0x94>)
    3d72:	18ca      	adds	r2, r1, r3
    3d74:	42a2      	cmp	r2, r4
    3d76:	d2f9      	bcs.n	3d6c <Reset_Handler+0xc>
    3d78:	58c4      	ldr	r4, [r0, r3]
    3d7a:	3304      	adds	r3, #4
    3d7c:	6014      	str	r4, [r2, #0]
    3d7e:	e7f7      	b.n	3d70 <Reset_Handler+0x10>
    3d80:	4a1d      	ldr	r2, [pc, #116]	; (3df8 <Reset_Handler+0x98>)
    3d82:	4293      	cmp	r3, r2
    3d84:	d202      	bcs.n	3d8c <Reset_Handler+0x2c>
    3d86:	2200      	movs	r2, #0
    3d88:	c304      	stmia	r3!, {r2}
    3d8a:	e7f9      	b.n	3d80 <Reset_Handler+0x20>
    3d8c:	21ff      	movs	r1, #255	; 0xff
    3d8e:	2402      	movs	r4, #2
    3d90:	2503      	movs	r5, #3
    3d92:	4b1a      	ldr	r3, [pc, #104]	; (3dfc <Reset_Handler+0x9c>)
    3d94:	4a1a      	ldr	r2, [pc, #104]	; (3e00 <Reset_Handler+0xa0>)
    3d96:	438b      	bics	r3, r1
    3d98:	260c      	movs	r6, #12
    3d9a:	6093      	str	r3, [r2, #8]
    3d9c:	2208      	movs	r2, #8
    3d9e:	4b19      	ldr	r3, [pc, #100]	; (3e04 <Reset_Handler+0xa4>)
    3da0:	4919      	ldr	r1, [pc, #100]	; (3e08 <Reset_Handler+0xa8>)
    3da2:	625c      	str	r4, [r3, #36]	; 0x24
    3da4:	78cb      	ldrb	r3, [r1, #3]
    3da6:	43ab      	bics	r3, r5
    3da8:	4323      	orrs	r3, r4
    3daa:	70cb      	strb	r3, [r1, #3]
    3dac:	78cb      	ldrb	r3, [r1, #3]
    3dae:	43b3      	bics	r3, r6
    3db0:	4313      	orrs	r3, r2
    3db2:	70cb      	strb	r3, [r1, #3]
    3db4:	2130      	movs	r1, #48	; 0x30
    3db6:	4b15      	ldr	r3, [pc, #84]	; (3e0c <Reset_Handler+0xac>)
    3db8:	7b98      	ldrb	r0, [r3, #14]
    3dba:	4388      	bics	r0, r1
    3dbc:	3910      	subs	r1, #16
    3dbe:	4308      	orrs	r0, r1
    3dc0:	7398      	strb	r0, [r3, #14]
    3dc2:	7b99      	ldrb	r1, [r3, #14]
    3dc4:	43b1      	bics	r1, r6
    3dc6:	4311      	orrs	r1, r2
    3dc8:	7399      	strb	r1, [r3, #14]
    3dca:	2180      	movs	r1, #128	; 0x80
    3dcc:	7b9a      	ldrb	r2, [r3, #14]
    3dce:	43aa      	bics	r2, r5
    3dd0:	4322      	orrs	r2, r4
    3dd2:	739a      	strb	r2, [r3, #14]
    3dd4:	4a0e      	ldr	r2, [pc, #56]	; (3e10 <Reset_Handler+0xb0>)
    3dd6:	6853      	ldr	r3, [r2, #4]
    3dd8:	430b      	orrs	r3, r1
    3dda:	6053      	str	r3, [r2, #4]
    3ddc:	4b0d      	ldr	r3, [pc, #52]	; (3e14 <Reset_Handler+0xb4>)
    3dde:	4798      	blx	r3
    3de0:	4b0d      	ldr	r3, [pc, #52]	; (3e18 <Reset_Handler+0xb8>)
    3de2:	4798      	blx	r3
    3de4:	e7fe      	b.n	3de4 <Reset_Handler+0x84>
    3de6:	46c0      	nop			; (mov r8, r8)
    3de8:	00004758 	.word	0x00004758
    3dec:	20000000 	.word	0x20000000
    3df0:	200000ec 	.word	0x200000ec
    3df4:	200000ec 	.word	0x200000ec
    3df8:	20000cb8 	.word	0x20000cb8
    3dfc:	00000000 	.word	0x00000000
    3e00:	e000ed00 	.word	0xe000ed00
    3e04:	410070fc 	.word	0x410070fc
    3e08:	41005000 	.word	0x41005000
    3e0c:	41004800 	.word	0x41004800
    3e10:	41004000 	.word	0x41004000
    3e14:	00004621 	.word	0x00004621
    3e18:	00003f45 	.word	0x00003f45

00003e1c <adc_complete_callback>:
    3e1c:	2201      	movs	r2, #1
    3e1e:	4b01      	ldr	r3, [pc, #4]	; (3e24 <adc_complete_callback+0x8>)
    3e20:	701a      	strb	r2, [r3, #0]
    3e22:	4770      	bx	lr
    3e24:	20000724 	.word	0x20000724

00003e28 <configure_adc>:
    3e28:	b510      	push	{r4, lr}
    3e2a:	b08c      	sub	sp, #48	; 0x30
    3e2c:	4668      	mov	r0, sp
    3e2e:	4b0e      	ldr	r3, [pc, #56]	; (3e68 <configure_adc+0x40>)
    3e30:	4798      	blx	r3
    3e32:	4c0e      	ldr	r4, [pc, #56]	; (3e6c <configure_adc+0x44>)
    3e34:	4b0e      	ldr	r3, [pc, #56]	; (3e70 <configure_adc+0x48>)
    3e36:	1c20      	adds	r0, r4, #0
    3e38:	490e      	ldr	r1, [pc, #56]	; (3e74 <configure_adc+0x4c>)
    3e3a:	466a      	mov	r2, sp
    3e3c:	4798      	blx	r3
    3e3e:	6823      	ldr	r3, [r4, #0]
    3e40:	7e5a      	ldrb	r2, [r3, #25]
    3e42:	b252      	sxtb	r2, r2
    3e44:	2a00      	cmp	r2, #0
    3e46:	dbfb      	blt.n	3e40 <configure_adc+0x18>
    3e48:	2180      	movs	r1, #128	; 0x80
    3e4a:	4a0b      	ldr	r2, [pc, #44]	; (3e78 <configure_adc+0x50>)
    3e4c:	0409      	lsls	r1, r1, #16
    3e4e:	6011      	str	r1, [r2, #0]
    3e50:	2102      	movs	r1, #2
    3e52:	781a      	ldrb	r2, [r3, #0]
    3e54:	430a      	orrs	r2, r1
    3e56:	701a      	strb	r2, [r3, #0]
    3e58:	6822      	ldr	r2, [r4, #0]
    3e5a:	7e53      	ldrb	r3, [r2, #25]
    3e5c:	b25b      	sxtb	r3, r3
    3e5e:	2b00      	cmp	r3, #0
    3e60:	dbfb      	blt.n	3e5a <configure_adc+0x32>
    3e62:	b00c      	add	sp, #48	; 0x30
    3e64:	bd10      	pop	{r4, pc}
    3e66:	46c0      	nop			; (mov r8, r8)
    3e68:	0000015d 	.word	0x0000015d
    3e6c:	20000c24 	.word	0x20000c24
    3e70:	000001a9 	.word	0x000001a9
    3e74:	42004000 	.word	0x42004000
    3e78:	e000e100 	.word	0xe000e100

00003e7c <configure_adc_callbacks>:
    3e7c:	b510      	push	{r4, lr}
    3e7e:	4c05      	ldr	r4, [pc, #20]	; (3e94 <configure_adc_callbacks+0x18>)
    3e80:	4905      	ldr	r1, [pc, #20]	; (3e98 <configure_adc_callbacks+0x1c>)
    3e82:	1c20      	adds	r0, r4, #0
    3e84:	2200      	movs	r2, #0
    3e86:	4b05      	ldr	r3, [pc, #20]	; (3e9c <configure_adc_callbacks+0x20>)
    3e88:	4798      	blx	r3
    3e8a:	2201      	movs	r2, #1
    3e8c:	7ee3      	ldrb	r3, [r4, #27]
    3e8e:	4313      	orrs	r3, r2
    3e90:	76e3      	strb	r3, [r4, #27]
    3e92:	bd10      	pop	{r4, pc}
    3e94:	20000c24 	.word	0x20000c24
    3e98:	00003e1d 	.word	0x00003e1d
    3e9c:	0000058d 	.word	0x0000058d

00003ea0 <main_suspend_action>:
    3ea0:	b508      	push	{r3, lr}
    3ea2:	4b01      	ldr	r3, [pc, #4]	; (3ea8 <main_suspend_action+0x8>)
    3ea4:	4798      	blx	r3
    3ea6:	bd08      	pop	{r3, pc}
    3ea8:	000006bd 	.word	0x000006bd

00003eac <main_resume_action>:
    3eac:	b508      	push	{r3, lr}
    3eae:	4b01      	ldr	r3, [pc, #4]	; (3eb4 <main_resume_action+0x8>)
    3eb0:	4798      	blx	r3
    3eb2:	bd08      	pop	{r3, pc}
    3eb4:	000006ed 	.word	0x000006ed

00003eb8 <main_sof_action>:
    3eb8:	b508      	push	{r3, lr}
    3eba:	4b04      	ldr	r3, [pc, #16]	; (3ecc <main_sof_action+0x14>)
    3ebc:	781b      	ldrb	r3, [r3, #0]
    3ebe:	2b00      	cmp	r3, #0
    3ec0:	d003      	beq.n	3eca <main_sof_action+0x12>
    3ec2:	4b03      	ldr	r3, [pc, #12]	; (3ed0 <main_sof_action+0x18>)
    3ec4:	4798      	blx	r3
    3ec6:	4b03      	ldr	r3, [pc, #12]	; (3ed4 <main_sof_action+0x1c>)
    3ec8:	4798      	blx	r3
    3eca:	bd08      	pop	{r3, pc}
    3ecc:	20000725 	.word	0x20000725
    3ed0:	00002ca1 	.word	0x00002ca1
    3ed4:	0000070d 	.word	0x0000070d

00003ed8 <main_suspend_lpm_action>:
    3ed8:	b508      	push	{r3, lr}
    3eda:	4b01      	ldr	r3, [pc, #4]	; (3ee0 <main_suspend_lpm_action+0x8>)
    3edc:	4798      	blx	r3
    3ede:	bd08      	pop	{r3, pc}
    3ee0:	000006bd 	.word	0x000006bd

00003ee4 <main_remotewakeup_lpm_disable>:
    3ee4:	b508      	push	{r3, lr}
    3ee6:	4b01      	ldr	r3, [pc, #4]	; (3eec <main_remotewakeup_lpm_disable+0x8>)
    3ee8:	4798      	blx	r3
    3eea:	bd08      	pop	{r3, pc}
    3eec:	000006dd 	.word	0x000006dd

00003ef0 <main_remotewakeup_lpm_enable>:
    3ef0:	b508      	push	{r3, lr}
    3ef2:	4b01      	ldr	r3, [pc, #4]	; (3ef8 <main_remotewakeup_lpm_enable+0x8>)
    3ef4:	4798      	blx	r3
    3ef6:	bd08      	pop	{r3, pc}
    3ef8:	000006cd 	.word	0x000006cd

00003efc <main_cdc_enable>:
    3efc:	b510      	push	{r4, lr}
    3efe:	2401      	movs	r4, #1
    3f00:	4b02      	ldr	r3, [pc, #8]	; (3f0c <main_cdc_enable+0x10>)
    3f02:	701c      	strb	r4, [r3, #0]
    3f04:	4b02      	ldr	r3, [pc, #8]	; (3f10 <main_cdc_enable+0x14>)
    3f06:	4798      	blx	r3
    3f08:	1c20      	adds	r0, r4, #0
    3f0a:	bd10      	pop	{r4, pc}
    3f0c:	20000725 	.word	0x20000725
    3f10:	00004245 	.word	0x00004245

00003f14 <main_cdc_disable>:
    3f14:	2200      	movs	r2, #0
    3f16:	b508      	push	{r3, lr}
    3f18:	4b02      	ldr	r3, [pc, #8]	; (3f24 <main_cdc_disable+0x10>)
    3f1a:	701a      	strb	r2, [r3, #0]
    3f1c:	4b02      	ldr	r3, [pc, #8]	; (3f28 <main_cdc_disable+0x14>)
    3f1e:	4798      	blx	r3
    3f20:	bd08      	pop	{r3, pc}
    3f22:	46c0      	nop			; (mov r8, r8)
    3f24:	20000725 	.word	0x20000725
    3f28:	00004251 	.word	0x00004251

00003f2c <main_cdc_set_dtr>:
    3f2c:	b508      	push	{r3, lr}
    3f2e:	4b03      	ldr	r3, [pc, #12]	; (3f3c <main_cdc_set_dtr+0x10>)
    3f30:	2900      	cmp	r1, #0
    3f32:	d100      	bne.n	3f36 <main_cdc_set_dtr+0xa>
    3f34:	4b02      	ldr	r3, [pc, #8]	; (3f40 <main_cdc_set_dtr+0x14>)
    3f36:	4798      	blx	r3
    3f38:	bd08      	pop	{r3, pc}
    3f3a:	46c0      	nop			; (mov r8, r8)
    3f3c:	000006fd 	.word	0x000006fd
    3f40:	000006ff 	.word	0x000006ff

00003f44 <main>:
    3f44:	b538      	push	{r3, r4, r5, lr}
    3f46:	2401      	movs	r4, #1
    3f48:	4d0e      	ldr	r5, [pc, #56]	; (3f84 <main+0x40>)
    3f4a:	702c      	strb	r4, [r5, #0]
    3f4c:	f3bf 8f5f 	dmb	sy
    3f50:	b662      	cpsie	i
    3f52:	2200      	movs	r2, #0
    3f54:	4b0c      	ldr	r3, [pc, #48]	; (3f88 <main+0x44>)
    3f56:	701a      	strb	r2, [r3, #0]
    3f58:	705a      	strb	r2, [r3, #1]
    3f5a:	709a      	strb	r2, [r3, #2]
    3f5c:	70da      	strb	r2, [r3, #3]
    3f5e:	711c      	strb	r4, [r3, #4]
    3f60:	4b0a      	ldr	r3, [pc, #40]	; (3f8c <main+0x48>)
    3f62:	4798      	blx	r3
    3f64:	4b0a      	ldr	r3, [pc, #40]	; (3f90 <main+0x4c>)
    3f66:	4798      	blx	r3
    3f68:	4b0a      	ldr	r3, [pc, #40]	; (3f94 <main+0x50>)
    3f6a:	4798      	blx	r3
    3f6c:	702c      	strb	r4, [r5, #0]
    3f6e:	f3bf 8f5f 	dmb	sy
    3f72:	b662      	cpsie	i
    3f74:	4b08      	ldr	r3, [pc, #32]	; (3f98 <main+0x54>)
    3f76:	4798      	blx	r3
    3f78:	4b08      	ldr	r3, [pc, #32]	; (3f9c <main+0x58>)
    3f7a:	4798      	blx	r3
    3f7c:	4b08      	ldr	r3, [pc, #32]	; (3fa0 <main+0x5c>)
    3f7e:	4798      	blx	r3
    3f80:	e7fe      	b.n	3f80 <main+0x3c>
    3f82:	46c0      	nop			; (mov r8, r8)
    3f84:	200000e8 	.word	0x200000e8
    3f88:	20000740 	.word	0x20000740
    3f8c:	00002609 	.word	0x00002609
    3f90:	00003e29 	.word	0x00003e29
    3f94:	00003e7d 	.word	0x00003e7d
    3f98:	00000665 	.word	0x00000665
    3f9c:	000006bd 	.word	0x000006bd
    3fa0:	0000106d 	.word	0x0000106d

00003fa4 <usart_rx_callback>:
    3fa4:	b510      	push	{r4, lr}
    3fa6:	4b0b      	ldr	r3, [pc, #44]	; (3fd4 <usart_rx_callback+0x30>)
    3fa8:	4798      	blx	r3
    3faa:	4b0b      	ldr	r3, [pc, #44]	; (3fd8 <usart_rx_callback+0x34>)
    3fac:	4798      	blx	r3
    3fae:	4c0b      	ldr	r4, [pc, #44]	; (3fdc <usart_rx_callback+0x38>)
    3fb0:	2800      	cmp	r0, #0
    3fb2:	d104      	bne.n	3fbe <usart_rx_callback+0x1a>
    3fb4:	4b0a      	ldr	r3, [pc, #40]	; (3fe0 <usart_rx_callback+0x3c>)
    3fb6:	4798      	blx	r3
    3fb8:	4b0a      	ldr	r3, [pc, #40]	; (3fe4 <usart_rx_callback+0x40>)
    3fba:	4798      	blx	r3
    3fbc:	e002      	b.n	3fc4 <usart_rx_callback+0x20>
    3fbe:	7820      	ldrb	r0, [r4, #0]
    3fc0:	4b09      	ldr	r3, [pc, #36]	; (3fe8 <usart_rx_callback+0x44>)
    3fc2:	4798      	blx	r3
    3fc4:	4b09      	ldr	r3, [pc, #36]	; (3fec <usart_rx_callback+0x48>)
    3fc6:	4798      	blx	r3
    3fc8:	1c21      	adds	r1, r4, #0
    3fca:	2201      	movs	r2, #1
    3fcc:	4b08      	ldr	r3, [pc, #32]	; (3ff0 <usart_rx_callback+0x4c>)
    3fce:	4809      	ldr	r0, [pc, #36]	; (3ff4 <usart_rx_callback+0x50>)
    3fd0:	4798      	blx	r3
    3fd2:	bd10      	pop	{r4, pc}
    3fd4:	00000705 	.word	0x00000705
    3fd8:	00000dd1 	.word	0x00000dd1
    3fdc:	20000726 	.word	0x20000726
    3fe0:	00000aad 	.word	0x00000aad
    3fe4:	00000709 	.word	0x00000709
    3fe8:	00000e59 	.word	0x00000e59
    3fec:	00000707 	.word	0x00000707
    3ff0:	00001e55 	.word	0x00001e55
    3ff4:	20000c84 	.word	0x20000c84

00003ff8 <usart_tx_callback>:
    3ff8:	b510      	push	{r4, lr}
    3ffa:	4b0e      	ldr	r3, [pc, #56]	; (4034 <usart_tx_callback+0x3c>)
    3ffc:	b086      	sub	sp, #24
    3ffe:	4798      	blx	r3
    4000:	2800      	cmp	r0, #0
    4002:	d00d      	beq.n	4020 <usart_tx_callback+0x28>
    4004:	4b0c      	ldr	r3, [pc, #48]	; (4038 <usart_tx_callback+0x40>)
    4006:	4798      	blx	r3
    4008:	4b0c      	ldr	r3, [pc, #48]	; (403c <usart_tx_callback+0x44>)
    400a:	4798      	blx	r3
    400c:	1c04      	adds	r4, r0, #0
    400e:	4b0c      	ldr	r3, [pc, #48]	; (4040 <usart_tx_callback+0x48>)
    4010:	1c21      	adds	r1, r4, #0
    4012:	a801      	add	r0, sp, #4
    4014:	4798      	blx	r3
    4016:	a801      	add	r0, sp, #4
    4018:	1c21      	adds	r1, r4, #0
    401a:	4b0a      	ldr	r3, [pc, #40]	; (4044 <usart_tx_callback+0x4c>)
    401c:	4798      	blx	r3
    401e:	e007      	b.n	4030 <usart_tx_callback+0x38>
    4020:	2101      	movs	r1, #1
    4022:	4b09      	ldr	r3, [pc, #36]	; (4048 <usart_tx_callback+0x50>)
    4024:	3331      	adds	r3, #49	; 0x31
    4026:	781a      	ldrb	r2, [r3, #0]
    4028:	438a      	bics	r2, r1
    402a:	701a      	strb	r2, [r3, #0]
    402c:	4b07      	ldr	r3, [pc, #28]	; (404c <usart_tx_callback+0x54>)
    402e:	4798      	blx	r3
    4030:	b006      	add	sp, #24
    4032:	bd10      	pop	{r4, pc}
    4034:	00000c99 	.word	0x00000c99
    4038:	00000701 	.word	0x00000701
    403c:	00000af1 	.word	0x00000af1
    4040:	00000d49 	.word	0x00000d49
    4044:	00000f05 	.word	0x00000f05
    4048:	20000c84 	.word	0x20000c84
    404c:	00000703 	.word	0x00000703

00004050 <usart_enable.constprop.3>:
    4050:	b538      	push	{r3, r4, r5, lr}
    4052:	4d0a      	ldr	r5, [pc, #40]	; (407c <usart_enable.constprop.3+0x2c>)
    4054:	4b0a      	ldr	r3, [pc, #40]	; (4080 <usart_enable.constprop.3+0x30>)
    4056:	682c      	ldr	r4, [r5, #0]
    4058:	1c20      	adds	r0, r4, #0
    405a:	4798      	blx	r3
    405c:	231f      	movs	r3, #31
    405e:	4018      	ands	r0, r3
    4060:	3b1e      	subs	r3, #30
    4062:	4083      	lsls	r3, r0
    4064:	1c18      	adds	r0, r3, #0
    4066:	4b07      	ldr	r3, [pc, #28]	; (4084 <usart_enable.constprop.3+0x34>)
    4068:	6018      	str	r0, [r3, #0]
    406a:	682a      	ldr	r2, [r5, #0]
    406c:	69d3      	ldr	r3, [r2, #28]
    406e:	2b00      	cmp	r3, #0
    4070:	d1fc      	bne.n	406c <usart_enable.constprop.3+0x1c>
    4072:	2202      	movs	r2, #2
    4074:	6823      	ldr	r3, [r4, #0]
    4076:	4313      	orrs	r3, r2
    4078:	6023      	str	r3, [r4, #0]
    407a:	bd38      	pop	{r3, r4, r5, pc}
    407c:	20000c84 	.word	0x20000c84
    4080:	00001a81 	.word	0x00001a81
    4084:	e000e100 	.word	0xe000e100

00004088 <usart_disable.constprop.2>:
    4088:	b538      	push	{r3, r4, r5, lr}
    408a:	4d0a      	ldr	r5, [pc, #40]	; (40b4 <usart_disable.constprop.2+0x2c>)
    408c:	4b0a      	ldr	r3, [pc, #40]	; (40b8 <usart_disable.constprop.2+0x30>)
    408e:	682c      	ldr	r4, [r5, #0]
    4090:	1c20      	adds	r0, r4, #0
    4092:	4798      	blx	r3
    4094:	231f      	movs	r3, #31
    4096:	4018      	ands	r0, r3
    4098:	3b1e      	subs	r3, #30
    409a:	4083      	lsls	r3, r0
    409c:	1c18      	adds	r0, r3, #0
    409e:	4b07      	ldr	r3, [pc, #28]	; (40bc <usart_disable.constprop.2+0x34>)
    40a0:	67d8      	str	r0, [r3, #124]	; 0x7c
    40a2:	682a      	ldr	r2, [r5, #0]
    40a4:	69d3      	ldr	r3, [r2, #28]
    40a6:	2b00      	cmp	r3, #0
    40a8:	d1fc      	bne.n	40a4 <usart_disable.constprop.2+0x1c>
    40aa:	2202      	movs	r2, #2
    40ac:	6823      	ldr	r3, [r4, #0]
    40ae:	4393      	bics	r3, r2
    40b0:	6023      	str	r3, [r4, #0]
    40b2:	bd38      	pop	{r3, r4, r5, pc}
    40b4:	20000c84 	.word	0x20000c84
    40b8:	00001a81 	.word	0x00001a81
    40bc:	e000e104 	.word	0xe000e104

000040c0 <uart_rx_notify>:
    40c0:	b530      	push	{r4, r5, lr}
    40c2:	4b0c      	ldr	r3, [pc, #48]	; (40f4 <uart_rx_notify+0x34>)
    40c4:	b0b3      	sub	sp, #204	; 0xcc
    40c6:	4798      	blx	r3
    40c8:	4b0b      	ldr	r3, [pc, #44]	; (40f8 <uart_rx_notify+0x38>)
    40ca:	4798      	blx	r3
    40cc:	4d0b      	ldr	r5, [pc, #44]	; (40fc <uart_rx_notify+0x3c>)
    40ce:	1e04      	subs	r4, r0, #0
    40d0:	4668      	mov	r0, sp
    40d2:	2cc8      	cmp	r4, #200	; 0xc8
    40d4:	dd06      	ble.n	40e4 <uart_rx_notify+0x24>
    40d6:	490a      	ldr	r1, [pc, #40]	; (4100 <uart_rx_notify+0x40>)
    40d8:	2223      	movs	r2, #35	; 0x23
    40da:	4b0a      	ldr	r3, [pc, #40]	; (4104 <uart_rx_notify+0x44>)
    40dc:	4798      	blx	r3
    40de:	4668      	mov	r0, sp
    40e0:	2123      	movs	r1, #35	; 0x23
    40e2:	e004      	b.n	40ee <uart_rx_notify+0x2e>
    40e4:	1c21      	adds	r1, r4, #0
    40e6:	4b08      	ldr	r3, [pc, #32]	; (4108 <uart_rx_notify+0x48>)
    40e8:	4798      	blx	r3
    40ea:	4668      	mov	r0, sp
    40ec:	1c21      	adds	r1, r4, #0
    40ee:	47a8      	blx	r5
    40f0:	b033      	add	sp, #204	; 0xcc
    40f2:	bd30      	pop	{r4, r5, pc}
    40f4:	00000701 	.word	0x00000701
    40f8:	00000af1 	.word	0x00000af1
    40fc:	00000f05 	.word	0x00000f05
    4100:	00004714 	.word	0x00004714
    4104:	0000466d 	.word	0x0000466d
    4108:	00000d49 	.word	0x00000d49

0000410c <uart_config>:
    410c:	20ff      	movs	r0, #255	; 0xff
    410e:	4a40      	ldr	r2, [pc, #256]	; (4210 <uart_config+0x104>)
    4110:	b5f8      	push	{r3, r4, r5, r6, r7, lr}
    4112:	8110      	strh	r0, [r2, #8]
    4114:	2096      	movs	r0, #150	; 0x96
    4116:	2380      	movs	r3, #128	; 0x80
    4118:	0180      	lsls	r0, r0, #6
    411a:	6210      	str	r0, [r2, #32]
    411c:	2001      	movs	r0, #1
    411e:	05db      	lsls	r3, r3, #23
    4120:	6013      	str	r3, [r2, #0]
    4122:	2300      	movs	r3, #0
    4124:	1d54      	adds	r4, r2, #5
    4126:	77e0      	strb	r0, [r4, #31]
    4128:	1d94      	adds	r4, r2, #6
    412a:	77e0      	strb	r0, [r4, #31]
    412c:	1dd0      	adds	r0, r2, #7
    412e:	77c3      	strb	r3, [r0, #31]
    4130:	1c10      	adds	r0, r2, #0
    4132:	3008      	adds	r0, #8
    4134:	77c3      	strb	r3, [r0, #31]
    4136:	2088      	movs	r0, #136	; 0x88
    4138:	0340      	lsls	r0, r0, #13
    413a:	60d0      	str	r0, [r2, #12]
    413c:	1c10      	adds	r0, r2, #0
    413e:	302c      	adds	r0, #44	; 0x2c
    4140:	7003      	strb	r3, [r0, #0]
    4142:	6053      	str	r3, [r2, #4]
    4144:	7293      	strb	r3, [r2, #10]
    4146:	72d3      	strb	r3, [r2, #11]
    4148:	6293      	str	r3, [r2, #40]	; 0x28
    414a:	6313      	str	r3, [r2, #48]	; 0x30
    414c:	6353      	str	r3, [r2, #52]	; 0x34
    414e:	6393      	str	r3, [r2, #56]	; 0x38
    4150:	63d3      	str	r3, [r2, #60]	; 0x3c
    4152:	6153      	str	r3, [r2, #20]
    4154:	8213      	strh	r3, [r2, #16]
    4156:	76d3      	strb	r3, [r2, #27]
    4158:	7613      	strb	r3, [r2, #24]
    415a:	7713      	strb	r3, [r2, #28]
    415c:	7653      	strb	r3, [r2, #25]
    415e:	2013      	movs	r0, #19
    4160:	7753      	strb	r3, [r2, #29]
    4162:	1c13      	adds	r3, r2, #0
    4164:	7690      	strb	r0, [r2, #26]
    4166:	332d      	adds	r3, #45	; 0x2d
    4168:	3810      	subs	r0, #16
    416a:	7018      	strb	r0, [r3, #0]
    416c:	790b      	ldrb	r3, [r1, #4]
    416e:	1c14      	adds	r4, r2, #0
    4170:	2b02      	cmp	r3, #2
    4172:	d101      	bne.n	4178 <uart_config+0x6c>
    4174:	333e      	adds	r3, #62	; 0x3e
    4176:	7293      	strb	r3, [r2, #10]
    4178:	794b      	ldrb	r3, [r1, #5]
    417a:	2b01      	cmp	r3, #1
    417c:	d003      	beq.n	4186 <uart_config+0x7a>
    417e:	2b02      	cmp	r3, #2
    4180:	d104      	bne.n	418c <uart_config+0x80>
    4182:	2300      	movs	r3, #0
    4184:	e001      	b.n	418a <uart_config+0x7e>
    4186:	2380      	movs	r3, #128	; 0x80
    4188:	019b      	lsls	r3, r3, #6
    418a:	8123      	strh	r3, [r4, #8]
    418c:	798b      	ldrb	r3, [r1, #6]
    418e:	2b06      	cmp	r3, #6
    4190:	d003      	beq.n	419a <uart_config+0x8e>
    4192:	2b07      	cmp	r3, #7
    4194:	d001      	beq.n	419a <uart_config+0x8e>
    4196:	2b05      	cmp	r3, #5
    4198:	d100      	bne.n	419c <uart_config+0x90>
    419a:	72e3      	strb	r3, [r4, #11]
    419c:	784a      	ldrb	r2, [r1, #1]
    419e:	780d      	ldrb	r5, [r1, #0]
    41a0:	788b      	ldrb	r3, [r1, #2]
    41a2:	0212      	lsls	r2, r2, #8
    41a4:	432a      	orrs	r2, r5
    41a6:	041b      	lsls	r3, r3, #16
    41a8:	4313      	orrs	r3, r2
    41aa:	1c1a      	adds	r2, r3, #0
    41ac:	78cb      	ldrb	r3, [r1, #3]
    41ae:	2601      	movs	r6, #1
    41b0:	061b      	lsls	r3, r3, #24
    41b2:	4313      	orrs	r3, r2
    41b4:	6223      	str	r3, [r4, #32]
    41b6:	2380      	movs	r3, #128	; 0x80
    41b8:	035b      	lsls	r3, r3, #13
    41ba:	60e3      	str	r3, [r4, #12]
    41bc:	4b15      	ldr	r3, [pc, #84]	; (4214 <uart_config+0x108>)
    41be:	6323      	str	r3, [r4, #48]	; 0x30
    41c0:	4b15      	ldr	r3, [pc, #84]	; (4218 <uart_config+0x10c>)
    41c2:	6363      	str	r3, [r4, #52]	; 0x34
    41c4:	2301      	movs	r3, #1
    41c6:	425b      	negs	r3, r3
    41c8:	63a3      	str	r3, [r4, #56]	; 0x38
    41ca:	63e3      	str	r3, [r4, #60]	; 0x3c
    41cc:	4b13      	ldr	r3, [pc, #76]	; (421c <uart_config+0x110>)
    41ce:	4798      	blx	r3
    41d0:	4d13      	ldr	r5, [pc, #76]	; (4220 <uart_config+0x114>)
    41d2:	1c22      	adds	r2, r4, #0
    41d4:	1c2c      	adds	r4, r5, #0
    41d6:	1c28      	adds	r0, r5, #0
    41d8:	4912      	ldr	r1, [pc, #72]	; (4224 <uart_config+0x118>)
    41da:	4b13      	ldr	r3, [pc, #76]	; (4228 <uart_config+0x11c>)
    41dc:	4798      	blx	r3
    41de:	4b13      	ldr	r3, [pc, #76]	; (422c <uart_config+0x120>)
    41e0:	4798      	blx	r3
    41e2:	3431      	adds	r4, #49	; 0x31
    41e4:	1c28      	adds	r0, r5, #0
    41e6:	4f12      	ldr	r7, [pc, #72]	; (4230 <uart_config+0x124>)
    41e8:	4912      	ldr	r1, [pc, #72]	; (4234 <uart_config+0x128>)
    41ea:	2200      	movs	r2, #0
    41ec:	47b8      	blx	r7
    41ee:	7823      	ldrb	r3, [r4, #0]
    41f0:	1c28      	adds	r0, r5, #0
    41f2:	4333      	orrs	r3, r6
    41f4:	1c32      	adds	r2, r6, #0
    41f6:	4910      	ldr	r1, [pc, #64]	; (4238 <uart_config+0x12c>)
    41f8:	7023      	strb	r3, [r4, #0]
    41fa:	47b8      	blx	r7
    41fc:	2202      	movs	r2, #2
    41fe:	7823      	ldrb	r3, [r4, #0]
    4200:	1c28      	adds	r0, r5, #0
    4202:	4313      	orrs	r3, r2
    4204:	7023      	strb	r3, [r4, #0]
    4206:	1c32      	adds	r2, r6, #0
    4208:	490c      	ldr	r1, [pc, #48]	; (423c <uart_config+0x130>)
    420a:	4b0d      	ldr	r3, [pc, #52]	; (4240 <uart_config+0x134>)
    420c:	4798      	blx	r3
    420e:	bdf8      	pop	{r3, r4, r5, r6, r7, pc}
    4210:	20000c44 	.word	0x20000c44
    4214:	00160002 	.word	0x00160002
    4218:	00170002 	.word	0x00170002
    421c:	00004089 	.word	0x00004089
    4220:	20000c84 	.word	0x20000c84
    4224:	42001400 	.word	0x42001400
    4228:	00001b15 	.word	0x00001b15
    422c:	00004051 	.word	0x00004051
    4230:	00001e3d 	.word	0x00001e3d
    4234:	00003ff9 	.word	0x00003ff9
    4238:	00003fa5 	.word	0x00003fa5
    423c:	20000726 	.word	0x20000726
    4240:	00001e55 	.word	0x00001e55

00004244 <uart_open>:
    4244:	b508      	push	{r3, lr}
    4246:	4b01      	ldr	r3, [pc, #4]	; (424c <uart_open+0x8>)
    4248:	4798      	blx	r3
    424a:	bd08      	pop	{r3, pc}
    424c:	00004051 	.word	0x00004051

00004250 <uart_close>:
    4250:	b508      	push	{r3, lr}
    4252:	4b01      	ldr	r3, [pc, #4]	; (4258 <uart_close+0x8>)
    4254:	4798      	blx	r3
    4256:	bd08      	pop	{r3, pc}
    4258:	00004089 	.word	0x00004089

0000425c <__gnu_thumb1_case_uqi>:
    425c:	b402      	push	{r1}
    425e:	4671      	mov	r1, lr
    4260:	0849      	lsrs	r1, r1, #1
    4262:	0049      	lsls	r1, r1, #1
    4264:	5c09      	ldrb	r1, [r1, r0]
    4266:	0049      	lsls	r1, r1, #1
    4268:	448e      	add	lr, r1
    426a:	bc02      	pop	{r1}
    426c:	4770      	bx	lr
    426e:	46c0      	nop			; (mov r8, r8)

00004270 <__aeabi_uidiv>:
    4270:	2200      	movs	r2, #0
    4272:	0843      	lsrs	r3, r0, #1
    4274:	428b      	cmp	r3, r1
    4276:	d374      	bcc.n	4362 <__aeabi_uidiv+0xf2>
    4278:	0903      	lsrs	r3, r0, #4
    427a:	428b      	cmp	r3, r1
    427c:	d35f      	bcc.n	433e <__aeabi_uidiv+0xce>
    427e:	0a03      	lsrs	r3, r0, #8
    4280:	428b      	cmp	r3, r1
    4282:	d344      	bcc.n	430e <__aeabi_uidiv+0x9e>
    4284:	0b03      	lsrs	r3, r0, #12
    4286:	428b      	cmp	r3, r1
    4288:	d328      	bcc.n	42dc <__aeabi_uidiv+0x6c>
    428a:	0c03      	lsrs	r3, r0, #16
    428c:	428b      	cmp	r3, r1
    428e:	d30d      	bcc.n	42ac <__aeabi_uidiv+0x3c>
    4290:	22ff      	movs	r2, #255	; 0xff
    4292:	0209      	lsls	r1, r1, #8
    4294:	ba12      	rev	r2, r2
    4296:	0c03      	lsrs	r3, r0, #16
    4298:	428b      	cmp	r3, r1
    429a:	d302      	bcc.n	42a2 <__aeabi_uidiv+0x32>
    429c:	1212      	asrs	r2, r2, #8
    429e:	0209      	lsls	r1, r1, #8
    42a0:	d065      	beq.n	436e <__aeabi_uidiv+0xfe>
    42a2:	0b03      	lsrs	r3, r0, #12
    42a4:	428b      	cmp	r3, r1
    42a6:	d319      	bcc.n	42dc <__aeabi_uidiv+0x6c>
    42a8:	e000      	b.n	42ac <__aeabi_uidiv+0x3c>
    42aa:	0a09      	lsrs	r1, r1, #8
    42ac:	0bc3      	lsrs	r3, r0, #15
    42ae:	428b      	cmp	r3, r1
    42b0:	d301      	bcc.n	42b6 <__aeabi_uidiv+0x46>
    42b2:	03cb      	lsls	r3, r1, #15
    42b4:	1ac0      	subs	r0, r0, r3
    42b6:	4152      	adcs	r2, r2
    42b8:	0b83      	lsrs	r3, r0, #14
    42ba:	428b      	cmp	r3, r1
    42bc:	d301      	bcc.n	42c2 <__aeabi_uidiv+0x52>
    42be:	038b      	lsls	r3, r1, #14
    42c0:	1ac0      	subs	r0, r0, r3
    42c2:	4152      	adcs	r2, r2
    42c4:	0b43      	lsrs	r3, r0, #13
    42c6:	428b      	cmp	r3, r1
    42c8:	d301      	bcc.n	42ce <__aeabi_uidiv+0x5e>
    42ca:	034b      	lsls	r3, r1, #13
    42cc:	1ac0      	subs	r0, r0, r3
    42ce:	4152      	adcs	r2, r2
    42d0:	0b03      	lsrs	r3, r0, #12
    42d2:	428b      	cmp	r3, r1
    42d4:	d301      	bcc.n	42da <__aeabi_uidiv+0x6a>
    42d6:	030b      	lsls	r3, r1, #12
    42d8:	1ac0      	subs	r0, r0, r3
    42da:	4152      	adcs	r2, r2
    42dc:	0ac3      	lsrs	r3, r0, #11
    42de:	428b      	cmp	r3, r1
    42e0:	d301      	bcc.n	42e6 <__aeabi_uidiv+0x76>
    42e2:	02cb      	lsls	r3, r1, #11
    42e4:	1ac0      	subs	r0, r0, r3
    42e6:	4152      	adcs	r2, r2
    42e8:	0a83      	lsrs	r3, r0, #10
    42ea:	428b      	cmp	r3, r1
    42ec:	d301      	bcc.n	42f2 <__aeabi_uidiv+0x82>
    42ee:	028b      	lsls	r3, r1, #10
    42f0:	1ac0      	subs	r0, r0, r3
    42f2:	4152      	adcs	r2, r2
    42f4:	0a43      	lsrs	r3, r0, #9
    42f6:	428b      	cmp	r3, r1
    42f8:	d301      	bcc.n	42fe <__aeabi_uidiv+0x8e>
    42fa:	024b      	lsls	r3, r1, #9
    42fc:	1ac0      	subs	r0, r0, r3
    42fe:	4152      	adcs	r2, r2
    4300:	0a03      	lsrs	r3, r0, #8
    4302:	428b      	cmp	r3, r1
    4304:	d301      	bcc.n	430a <__aeabi_uidiv+0x9a>
    4306:	020b      	lsls	r3, r1, #8
    4308:	1ac0      	subs	r0, r0, r3
    430a:	4152      	adcs	r2, r2
    430c:	d2cd      	bcs.n	42aa <__aeabi_uidiv+0x3a>
    430e:	09c3      	lsrs	r3, r0, #7
    4310:	428b      	cmp	r3, r1
    4312:	d301      	bcc.n	4318 <__aeabi_uidiv+0xa8>
    4314:	01cb      	lsls	r3, r1, #7
    4316:	1ac0      	subs	r0, r0, r3
    4318:	4152      	adcs	r2, r2
    431a:	0983      	lsrs	r3, r0, #6
    431c:	428b      	cmp	r3, r1
    431e:	d301      	bcc.n	4324 <__aeabi_uidiv+0xb4>
    4320:	018b      	lsls	r3, r1, #6
    4322:	1ac0      	subs	r0, r0, r3
    4324:	4152      	adcs	r2, r2
    4326:	0943      	lsrs	r3, r0, #5
    4328:	428b      	cmp	r3, r1
    432a:	d301      	bcc.n	4330 <__aeabi_uidiv+0xc0>
    432c:	014b      	lsls	r3, r1, #5
    432e:	1ac0      	subs	r0, r0, r3
    4330:	4152      	adcs	r2, r2
    4332:	0903      	lsrs	r3, r0, #4
    4334:	428b      	cmp	r3, r1
    4336:	d301      	bcc.n	433c <__aeabi_uidiv+0xcc>
    4338:	010b      	lsls	r3, r1, #4
    433a:	1ac0      	subs	r0, r0, r3
    433c:	4152      	adcs	r2, r2
    433e:	08c3      	lsrs	r3, r0, #3
    4340:	428b      	cmp	r3, r1
    4342:	d301      	bcc.n	4348 <__aeabi_uidiv+0xd8>
    4344:	00cb      	lsls	r3, r1, #3
    4346:	1ac0      	subs	r0, r0, r3
    4348:	4152      	adcs	r2, r2
    434a:	0883      	lsrs	r3, r0, #2
    434c:	428b      	cmp	r3, r1
    434e:	d301      	bcc.n	4354 <__aeabi_uidiv+0xe4>
    4350:	008b      	lsls	r3, r1, #2
    4352:	1ac0      	subs	r0, r0, r3
    4354:	4152      	adcs	r2, r2
    4356:	0843      	lsrs	r3, r0, #1
    4358:	428b      	cmp	r3, r1
    435a:	d301      	bcc.n	4360 <__aeabi_uidiv+0xf0>
    435c:	004b      	lsls	r3, r1, #1
    435e:	1ac0      	subs	r0, r0, r3
    4360:	4152      	adcs	r2, r2
    4362:	1a41      	subs	r1, r0, r1
    4364:	d200      	bcs.n	4368 <__aeabi_uidiv+0xf8>
    4366:	4601      	mov	r1, r0
    4368:	4152      	adcs	r2, r2
    436a:	4610      	mov	r0, r2
    436c:	4770      	bx	lr
    436e:	e7ff      	b.n	4370 <__aeabi_uidiv+0x100>
    4370:	b501      	push	{r0, lr}
    4372:	2000      	movs	r0, #0
    4374:	f000 f8fc 	bl	4570 <__aeabi_idiv0>
    4378:	bd02      	pop	{r1, pc}
    437a:	46c0      	nop			; (mov r8, r8)

0000437c <__aeabi_uidivmod>:
    437c:	2900      	cmp	r1, #0
    437e:	d0f7      	beq.n	4370 <__aeabi_uidiv+0x100>
    4380:	b503      	push	{r0, r1, lr}
    4382:	f7ff ff75 	bl	4270 <__aeabi_uidiv>
    4386:	bc0e      	pop	{r1, r2, r3}
    4388:	4342      	muls	r2, r0
    438a:	1a89      	subs	r1, r1, r2
    438c:	4718      	bx	r3
    438e:	46c0      	nop			; (mov r8, r8)

00004390 <__aeabi_idiv>:
    4390:	4603      	mov	r3, r0
    4392:	430b      	orrs	r3, r1
    4394:	d47f      	bmi.n	4496 <__aeabi_idiv+0x106>
    4396:	2200      	movs	r2, #0
    4398:	0843      	lsrs	r3, r0, #1
    439a:	428b      	cmp	r3, r1
    439c:	d374      	bcc.n	4488 <__aeabi_idiv+0xf8>
    439e:	0903      	lsrs	r3, r0, #4
    43a0:	428b      	cmp	r3, r1
    43a2:	d35f      	bcc.n	4464 <__aeabi_idiv+0xd4>
    43a4:	0a03      	lsrs	r3, r0, #8
    43a6:	428b      	cmp	r3, r1
    43a8:	d344      	bcc.n	4434 <__aeabi_idiv+0xa4>
    43aa:	0b03      	lsrs	r3, r0, #12
    43ac:	428b      	cmp	r3, r1
    43ae:	d328      	bcc.n	4402 <__aeabi_idiv+0x72>
    43b0:	0c03      	lsrs	r3, r0, #16
    43b2:	428b      	cmp	r3, r1
    43b4:	d30d      	bcc.n	43d2 <__aeabi_idiv+0x42>
    43b6:	22ff      	movs	r2, #255	; 0xff
    43b8:	0209      	lsls	r1, r1, #8
    43ba:	ba12      	rev	r2, r2
    43bc:	0c03      	lsrs	r3, r0, #16
    43be:	428b      	cmp	r3, r1
    43c0:	d302      	bcc.n	43c8 <__aeabi_idiv+0x38>
    43c2:	1212      	asrs	r2, r2, #8
    43c4:	0209      	lsls	r1, r1, #8
    43c6:	d065      	beq.n	4494 <__aeabi_idiv+0x104>
    43c8:	0b03      	lsrs	r3, r0, #12
    43ca:	428b      	cmp	r3, r1
    43cc:	d319      	bcc.n	4402 <__aeabi_idiv+0x72>
    43ce:	e000      	b.n	43d2 <__aeabi_idiv+0x42>
    43d0:	0a09      	lsrs	r1, r1, #8
    43d2:	0bc3      	lsrs	r3, r0, #15
    43d4:	428b      	cmp	r3, r1
    43d6:	d301      	bcc.n	43dc <__aeabi_idiv+0x4c>
    43d8:	03cb      	lsls	r3, r1, #15
    43da:	1ac0      	subs	r0, r0, r3
    43dc:	4152      	adcs	r2, r2
    43de:	0b83      	lsrs	r3, r0, #14
    43e0:	428b      	cmp	r3, r1
    43e2:	d301      	bcc.n	43e8 <__aeabi_idiv+0x58>
    43e4:	038b      	lsls	r3, r1, #14
    43e6:	1ac0      	subs	r0, r0, r3
    43e8:	4152      	adcs	r2, r2
    43ea:	0b43      	lsrs	r3, r0, #13
    43ec:	428b      	cmp	r3, r1
    43ee:	d301      	bcc.n	43f4 <__aeabi_idiv+0x64>
    43f0:	034b      	lsls	r3, r1, #13
    43f2:	1ac0      	subs	r0, r0, r3
    43f4:	4152      	adcs	r2, r2
    43f6:	0b03      	lsrs	r3, r0, #12
    43f8:	428b      	cmp	r3, r1
    43fa:	d301      	bcc.n	4400 <__aeabi_idiv+0x70>
    43fc:	030b      	lsls	r3, r1, #12
    43fe:	1ac0      	subs	r0, r0, r3
    4400:	4152      	adcs	r2, r2
    4402:	0ac3      	lsrs	r3, r0, #11
    4404:	428b      	cmp	r3, r1
    4406:	d301      	bcc.n	440c <__aeabi_idiv+0x7c>
    4408:	02cb      	lsls	r3, r1, #11
    440a:	1ac0      	subs	r0, r0, r3
    440c:	4152      	adcs	r2, r2
    440e:	0a83      	lsrs	r3, r0, #10
    4410:	428b      	cmp	r3, r1
    4412:	d301      	bcc.n	4418 <__aeabi_idiv+0x88>
    4414:	028b      	lsls	r3, r1, #10
    4416:	1ac0      	subs	r0, r0, r3
    4418:	4152      	adcs	r2, r2
    441a:	0a43      	lsrs	r3, r0, #9
    441c:	428b      	cmp	r3, r1
    441e:	d301      	bcc.n	4424 <__aeabi_idiv+0x94>
    4420:	024b      	lsls	r3, r1, #9
    4422:	1ac0      	subs	r0, r0, r3
    4424:	4152      	adcs	r2, r2
    4426:	0a03      	lsrs	r3, r0, #8
    4428:	428b      	cmp	r3, r1
    442a:	d301      	bcc.n	4430 <__aeabi_idiv+0xa0>
    442c:	020b      	lsls	r3, r1, #8
    442e:	1ac0      	subs	r0, r0, r3
    4430:	4152      	adcs	r2, r2
    4432:	d2cd      	bcs.n	43d0 <__aeabi_idiv+0x40>
    4434:	09c3      	lsrs	r3, r0, #7
    4436:	428b      	cmp	r3, r1
    4438:	d301      	bcc.n	443e <__aeabi_idiv+0xae>
    443a:	01cb      	lsls	r3, r1, #7
    443c:	1ac0      	subs	r0, r0, r3
    443e:	4152      	adcs	r2, r2
    4440:	0983      	lsrs	r3, r0, #6
    4442:	428b      	cmp	r3, r1
    4444:	d301      	bcc.n	444a <__aeabi_idiv+0xba>
    4446:	018b      	lsls	r3, r1, #6
    4448:	1ac0      	subs	r0, r0, r3
    444a:	4152      	adcs	r2, r2
    444c:	0943      	lsrs	r3, r0, #5
    444e:	428b      	cmp	r3, r1
    4450:	d301      	bcc.n	4456 <__aeabi_idiv+0xc6>
    4452:	014b      	lsls	r3, r1, #5
    4454:	1ac0      	subs	r0, r0, r3
    4456:	4152      	adcs	r2, r2
    4458:	0903      	lsrs	r3, r0, #4
    445a:	428b      	cmp	r3, r1
    445c:	d301      	bcc.n	4462 <__aeabi_idiv+0xd2>
    445e:	010b      	lsls	r3, r1, #4
    4460:	1ac0      	subs	r0, r0, r3
    4462:	4152      	adcs	r2, r2
    4464:	08c3      	lsrs	r3, r0, #3
    4466:	428b      	cmp	r3, r1
    4468:	d301      	bcc.n	446e <__aeabi_idiv+0xde>
    446a:	00cb      	lsls	r3, r1, #3
    446c:	1ac0      	subs	r0, r0, r3
    446e:	4152      	adcs	r2, r2
    4470:	0883      	lsrs	r3, r0, #2
    4472:	428b      	cmp	r3, r1
    4474:	d301      	bcc.n	447a <__aeabi_idiv+0xea>
    4476:	008b      	lsls	r3, r1, #2
    4478:	1ac0      	subs	r0, r0, r3
    447a:	4152      	adcs	r2, r2
    447c:	0843      	lsrs	r3, r0, #1
    447e:	428b      	cmp	r3, r1
    4480:	d301      	bcc.n	4486 <__aeabi_idiv+0xf6>
    4482:	004b      	lsls	r3, r1, #1
    4484:	1ac0      	subs	r0, r0, r3
    4486:	4152      	adcs	r2, r2
    4488:	1a41      	subs	r1, r0, r1
    448a:	d200      	bcs.n	448e <__aeabi_idiv+0xfe>
    448c:	4601      	mov	r1, r0
    448e:	4152      	adcs	r2, r2
    4490:	4610      	mov	r0, r2
    4492:	4770      	bx	lr
    4494:	e05d      	b.n	4552 <__aeabi_idiv+0x1c2>
    4496:	0fca      	lsrs	r2, r1, #31
    4498:	d000      	beq.n	449c <__aeabi_idiv+0x10c>
    449a:	4249      	negs	r1, r1
    449c:	1003      	asrs	r3, r0, #32
    449e:	d300      	bcc.n	44a2 <__aeabi_idiv+0x112>
    44a0:	4240      	negs	r0, r0
    44a2:	4053      	eors	r3, r2
    44a4:	2200      	movs	r2, #0
    44a6:	469c      	mov	ip, r3
    44a8:	0903      	lsrs	r3, r0, #4
    44aa:	428b      	cmp	r3, r1
    44ac:	d32d      	bcc.n	450a <__aeabi_idiv+0x17a>
    44ae:	0a03      	lsrs	r3, r0, #8
    44b0:	428b      	cmp	r3, r1
    44b2:	d312      	bcc.n	44da <__aeabi_idiv+0x14a>
    44b4:	22fc      	movs	r2, #252	; 0xfc
    44b6:	0189      	lsls	r1, r1, #6
    44b8:	ba12      	rev	r2, r2
    44ba:	0a03      	lsrs	r3, r0, #8
    44bc:	428b      	cmp	r3, r1
    44be:	d30c      	bcc.n	44da <__aeabi_idiv+0x14a>
    44c0:	0189      	lsls	r1, r1, #6
    44c2:	1192      	asrs	r2, r2, #6
    44c4:	428b      	cmp	r3, r1
    44c6:	d308      	bcc.n	44da <__aeabi_idiv+0x14a>
    44c8:	0189      	lsls	r1, r1, #6
    44ca:	1192      	asrs	r2, r2, #6
    44cc:	428b      	cmp	r3, r1
    44ce:	d304      	bcc.n	44da <__aeabi_idiv+0x14a>
    44d0:	0189      	lsls	r1, r1, #6
    44d2:	d03a      	beq.n	454a <__aeabi_idiv+0x1ba>
    44d4:	1192      	asrs	r2, r2, #6
    44d6:	e000      	b.n	44da <__aeabi_idiv+0x14a>
    44d8:	0989      	lsrs	r1, r1, #6
    44da:	09c3      	lsrs	r3, r0, #7
    44dc:	428b      	cmp	r3, r1
    44de:	d301      	bcc.n	44e4 <__aeabi_idiv+0x154>
    44e0:	01cb      	lsls	r3, r1, #7
    44e2:	1ac0      	subs	r0, r0, r3
    44e4:	4152      	adcs	r2, r2
    44e6:	0983      	lsrs	r3, r0, #6
    44e8:	428b      	cmp	r3, r1
    44ea:	d301      	bcc.n	44f0 <__aeabi_idiv+0x160>
    44ec:	018b      	lsls	r3, r1, #6
    44ee:	1ac0      	subs	r0, r0, r3
    44f0:	4152      	adcs	r2, r2
    44f2:	0943      	lsrs	r3, r0, #5
    44f4:	428b      	cmp	r3, r1
    44f6:	d301      	bcc.n	44fc <__aeabi_idiv+0x16c>
    44f8:	014b      	lsls	r3, r1, #5
    44fa:	1ac0      	subs	r0, r0, r3
    44fc:	4152      	adcs	r2, r2
    44fe:	0903      	lsrs	r3, r0, #4
    4500:	428b      	cmp	r3, r1
    4502:	d301      	bcc.n	4508 <__aeabi_idiv+0x178>
    4504:	010b      	lsls	r3, r1, #4
    4506:	1ac0      	subs	r0, r0, r3
    4508:	4152      	adcs	r2, r2
    450a:	08c3      	lsrs	r3, r0, #3
    450c:	428b      	cmp	r3, r1
    450e:	d301      	bcc.n	4514 <__aeabi_idiv+0x184>
    4510:	00cb      	lsls	r3, r1, #3
    4512:	1ac0      	subs	r0, r0, r3
    4514:	4152      	adcs	r2, r2
    4516:	0883      	lsrs	r3, r0, #2
    4518:	428b      	cmp	r3, r1
    451a:	d301      	bcc.n	4520 <__aeabi_idiv+0x190>
    451c:	008b      	lsls	r3, r1, #2
    451e:	1ac0      	subs	r0, r0, r3
    4520:	4152      	adcs	r2, r2
    4522:	d2d9      	bcs.n	44d8 <__aeabi_idiv+0x148>
    4524:	0843      	lsrs	r3, r0, #1
    4526:	428b      	cmp	r3, r1
    4528:	d301      	bcc.n	452e <__aeabi_idiv+0x19e>
    452a:	004b      	lsls	r3, r1, #1
    452c:	1ac0      	subs	r0, r0, r3
    452e:	4152      	adcs	r2, r2
    4530:	1a41      	subs	r1, r0, r1
    4532:	d200      	bcs.n	4536 <__aeabi_idiv+0x1a6>
    4534:	4601      	mov	r1, r0
    4536:	4663      	mov	r3, ip
    4538:	4152      	adcs	r2, r2
    453a:	105b      	asrs	r3, r3, #1
    453c:	4610      	mov	r0, r2
    453e:	d301      	bcc.n	4544 <__aeabi_idiv+0x1b4>
    4540:	4240      	negs	r0, r0
    4542:	2b00      	cmp	r3, #0
    4544:	d500      	bpl.n	4548 <__aeabi_idiv+0x1b8>
    4546:	4249      	negs	r1, r1
    4548:	4770      	bx	lr
    454a:	4663      	mov	r3, ip
    454c:	105b      	asrs	r3, r3, #1
    454e:	d300      	bcc.n	4552 <__aeabi_idiv+0x1c2>
    4550:	4240      	negs	r0, r0
    4552:	b501      	push	{r0, lr}
    4554:	2000      	movs	r0, #0
    4556:	f000 f80b 	bl	4570 <__aeabi_idiv0>
    455a:	bd02      	pop	{r1, pc}

0000455c <__aeabi_idivmod>:
    455c:	2900      	cmp	r1, #0
    455e:	d0f8      	beq.n	4552 <__aeabi_idiv+0x1c2>
    4560:	b503      	push	{r0, r1, lr}
    4562:	f7ff ff15 	bl	4390 <__aeabi_idiv>
    4566:	bc0e      	pop	{r1, r2, r3}
    4568:	4342      	muls	r2, r0
    456a:	1a89      	subs	r1, r1, r2
    456c:	4718      	bx	r3
    456e:	46c0      	nop			; (mov r8, r8)

00004570 <__aeabi_idiv0>:
    4570:	4770      	bx	lr
    4572:	46c0      	nop			; (mov r8, r8)

00004574 <__aeabi_llsl>:
    4574:	4091      	lsls	r1, r2
    4576:	1c03      	adds	r3, r0, #0
    4578:	4090      	lsls	r0, r2
    457a:	469c      	mov	ip, r3
    457c:	3a20      	subs	r2, #32
    457e:	4093      	lsls	r3, r2
    4580:	4319      	orrs	r1, r3
    4582:	4252      	negs	r2, r2
    4584:	4663      	mov	r3, ip
    4586:	40d3      	lsrs	r3, r2
    4588:	4319      	orrs	r1, r3
    458a:	4770      	bx	lr

0000458c <__ctzsi2>:
    458c:	4241      	negs	r1, r0
    458e:	4008      	ands	r0, r1
    4590:	211c      	movs	r1, #28
    4592:	2301      	movs	r3, #1
    4594:	041b      	lsls	r3, r3, #16
    4596:	4298      	cmp	r0, r3
    4598:	d301      	bcc.n	459e <__ctzsi2+0x12>
    459a:	0c00      	lsrs	r0, r0, #16
    459c:	3910      	subs	r1, #16
    459e:	0a1b      	lsrs	r3, r3, #8
    45a0:	4298      	cmp	r0, r3
    45a2:	d301      	bcc.n	45a8 <__ctzsi2+0x1c>
    45a4:	0a00      	lsrs	r0, r0, #8
    45a6:	3908      	subs	r1, #8
    45a8:	091b      	lsrs	r3, r3, #4
    45aa:	4298      	cmp	r0, r3
    45ac:	d301      	bcc.n	45b2 <__ctzsi2+0x26>
    45ae:	0900      	lsrs	r0, r0, #4
    45b0:	3904      	subs	r1, #4
    45b2:	a202      	add	r2, pc, #8	; (adr r2, 45bc <__ctzsi2+0x30>)
    45b4:	5c10      	ldrb	r0, [r2, r0]
    45b6:	1a40      	subs	r0, r0, r1
    45b8:	4770      	bx	lr
    45ba:	46c0      	nop			; (mov r8, r8)
    45bc:	1d1d1c1b 	.word	0x1d1d1c1b
    45c0:	1e1e1e1e 	.word	0x1e1e1e1e
    45c4:	1f1f1f1f 	.word	0x1f1f1f1f
    45c8:	1f1f1f1f 	.word	0x1f1f1f1f

000045cc <__aeabi_lmul>:
    45cc:	b5f0      	push	{r4, r5, r6, r7, lr}
    45ce:	464f      	mov	r7, r9
    45d0:	4646      	mov	r6, r8
    45d2:	0405      	lsls	r5, r0, #16
    45d4:	0c2d      	lsrs	r5, r5, #16
    45d6:	1c2c      	adds	r4, r5, #0
    45d8:	b4c0      	push	{r6, r7}
    45da:	0417      	lsls	r7, r2, #16
    45dc:	0c16      	lsrs	r6, r2, #16
    45de:	0c3f      	lsrs	r7, r7, #16
    45e0:	4699      	mov	r9, r3
    45e2:	0c03      	lsrs	r3, r0, #16
    45e4:	437c      	muls	r4, r7
    45e6:	4375      	muls	r5, r6
    45e8:	435f      	muls	r7, r3
    45ea:	4373      	muls	r3, r6
    45ec:	197d      	adds	r5, r7, r5
    45ee:	0c26      	lsrs	r6, r4, #16
    45f0:	19ad      	adds	r5, r5, r6
    45f2:	469c      	mov	ip, r3
    45f4:	42af      	cmp	r7, r5
    45f6:	d903      	bls.n	4600 <__aeabi_lmul+0x34>
    45f8:	2380      	movs	r3, #128	; 0x80
    45fa:	025b      	lsls	r3, r3, #9
    45fc:	4698      	mov	r8, r3
    45fe:	44c4      	add	ip, r8
    4600:	464b      	mov	r3, r9
    4602:	4351      	muls	r1, r2
    4604:	4343      	muls	r3, r0
    4606:	0424      	lsls	r4, r4, #16
    4608:	0c2e      	lsrs	r6, r5, #16
    460a:	0c24      	lsrs	r4, r4, #16
    460c:	042d      	lsls	r5, r5, #16
    460e:	4466      	add	r6, ip
    4610:	192c      	adds	r4, r5, r4
    4612:	1859      	adds	r1, r3, r1
    4614:	1989      	adds	r1, r1, r6
    4616:	1c20      	adds	r0, r4, #0
    4618:	bc0c      	pop	{r2, r3}
    461a:	4690      	mov	r8, r2
    461c:	4699      	mov	r9, r3
    461e:	bdf0      	pop	{r4, r5, r6, r7, pc}

00004620 <__libc_init_array>:
    4620:	4b0e      	ldr	r3, [pc, #56]	; (465c <__libc_init_array+0x3c>)
    4622:	b570      	push	{r4, r5, r6, lr}
    4624:	2500      	movs	r5, #0
    4626:	1c1e      	adds	r6, r3, #0
    4628:	4c0d      	ldr	r4, [pc, #52]	; (4660 <__libc_init_array+0x40>)
    462a:	1ae4      	subs	r4, r4, r3
    462c:	10a4      	asrs	r4, r4, #2
    462e:	42a5      	cmp	r5, r4
    4630:	d004      	beq.n	463c <__libc_init_array+0x1c>
    4632:	00ab      	lsls	r3, r5, #2
    4634:	58f3      	ldr	r3, [r6, r3]
    4636:	4798      	blx	r3
    4638:	3501      	adds	r5, #1
    463a:	e7f8      	b.n	462e <__libc_init_array+0xe>
    463c:	f000 f87c 	bl	4738 <_init>
    4640:	4b08      	ldr	r3, [pc, #32]	; (4664 <__libc_init_array+0x44>)
    4642:	2500      	movs	r5, #0
    4644:	1c1e      	adds	r6, r3, #0
    4646:	4c08      	ldr	r4, [pc, #32]	; (4668 <__libc_init_array+0x48>)
    4648:	1ae4      	subs	r4, r4, r3
    464a:	10a4      	asrs	r4, r4, #2
    464c:	42a5      	cmp	r5, r4
    464e:	d004      	beq.n	465a <__libc_init_array+0x3a>
    4650:	00ab      	lsls	r3, r5, #2
    4652:	58f3      	ldr	r3, [r6, r3]
    4654:	4798      	blx	r3
    4656:	3501      	adds	r5, #1
    4658:	e7f8      	b.n	464c <__libc_init_array+0x2c>
    465a:	bd70      	pop	{r4, r5, r6, pc}
    465c:	00004744 	.word	0x00004744
    4660:	00004744 	.word	0x00004744
    4664:	00004744 	.word	0x00004744
    4668:	00004748 	.word	0x00004748

0000466c <memcpy>:
    466c:	2300      	movs	r3, #0
    466e:	b510      	push	{r4, lr}
    4670:	4293      	cmp	r3, r2
    4672:	d003      	beq.n	467c <memcpy+0x10>
    4674:	5ccc      	ldrb	r4, [r1, r3]
    4676:	54c4      	strb	r4, [r0, r3]
    4678:	3301      	adds	r3, #1
    467a:	e7f9      	b.n	4670 <memcpy+0x4>
    467c:	bd10      	pop	{r4, pc}

0000467e <memset>:
    467e:	1c03      	adds	r3, r0, #0
    4680:	1882      	adds	r2, r0, r2
    4682:	4293      	cmp	r3, r2
    4684:	d002      	beq.n	468c <memset+0xe>
    4686:	7019      	strb	r1, [r3, #0]
    4688:	3301      	adds	r3, #1
    468a:	e7fa      	b.n	4682 <memset+0x4>
    468c:	4770      	bx	lr
    468e:	0000      	movs	r0, r0
    4690:	00000002 	.word	0x00000002
    4694:	00000003 	.word	0x00000003
    4698:	00000028 	.word	0x00000028
    469c:	00000029 	.word	0x00000029
    46a0:	00000004 	.word	0x00000004
    46a4:	00000005 	.word	0x00000005
    46a8:	00000006 	.word	0x00000006
    46ac:	00000007 	.word	0x00000007
    46b0:	00000020 	.word	0x00000020
    46b4:	00000021 	.word	0x00000021
    46b8:	00000022 	.word	0x00000022
    46bc:	00000023 	.word	0x00000023
    46c0:	00000024 	.word	0x00000024
    46c4:	00000025 	.word	0x00000025
    46c8:	00000026 	.word	0x00000026
    46cc:	00000027 	.word	0x00000027
    46d0:	00000008 	.word	0x00000008
    46d4:	00000009 	.word	0x00000009
    46d8:	0000000a 	.word	0x0000000a
    46dc:	0000000b 	.word	0x0000000b
    46e0:	42000800 	.word	0x42000800
    46e4:	42000c00 	.word	0x42000c00
    46e8:	42001000 	.word	0x42001000
    46ec:	42001400 	.word	0x42001400
    46f0:	42001800 	.word	0x42001800
    46f4:	42001c00 	.word	0x42001c00
    46f8:	0c0b0a09 	.word	0x0c0b0a09
    46fc:	0e0d      	.short	0x0e0d
    46fe:	0300      	.short	0x0300
    4700:	0102      	.short	0x0102

00004702 <_usb_device_irq_bits>:
    4702:	0004 0008 0070 0080 0001 0100 0200          ....p.........

00004710 <_usb_endpoint_irq_bits>:
    4710:	0c03 6010 6e49 6176 696c 2064 6164 6174     ...`Invalid data
    4720:	6c20 6e65 7467 2c68 6f74 206f 756d 6863      length,too much
    4730:	6420 7461 2161 0000                          data!..

00004738 <_init>:
    4738:	b5f8      	push	{r3, r4, r5, r6, r7, lr}
    473a:	46c0      	nop			; (mov r8, r8)
    473c:	bcf8      	pop	{r3, r4, r5, r6, r7}
    473e:	bc08      	pop	{r3}
    4740:	469e      	mov	lr, r3
    4742:	4770      	bx	lr

00004744 <__init_array_start>:
    4744:	000000dd 	.word	0x000000dd

00004748 <_fini>:
    4748:	b5f8      	push	{r3, r4, r5, r6, r7, lr}
    474a:	46c0      	nop			; (mov r8, r8)
    474c:	bcf8      	pop	{r3, r4, r5, r6, r7}
    474e:	bc08      	pop	{r3}
    4750:	469e      	mov	lr, r3
    4752:	4770      	bx	lr

00004754 <__fini_array_start>:
    4754:	000000b5 	.word	0x000000b5
